	.file	"atomic.c"
	.section	".text"
.LLtext0:
	.cfi_sections	.debug_frame
	.section	.rodata.str1.8,"aMS",@progbits,1
	.align 8
.LLC0:
	.asciz	"%s %s %s (0x%llx %s 0x%llx)"
	.align 8
.LLC1:
	.asciz	"pthread_mutex_lock(&atomic_lock)"
	.align 8
.LLC2:
	.asciz	"=="
	.align 8
.LLC3:
	.asciz	"0"
	.align 8
.LLC4:
	.asciz	"atomic.c"
	.align 8
.LLC5:
	.asciz	"pthread_mutex_unlock(&atomic_lock)"
	.section	".text"
	.align 4
	.align 32
	.global atomic_inc_long
	.type	atomic_inc_long, #function
	.proc	020
atomic_inc_long:
.LLFB25:
	.file 1 "atomic.c"
	.loc 1 51 0
	.cfi_startproc
.LLVL0:
	save	%sp, -128, %sp
.LLCFI0:
	.cfi_def_cfa_register 30
	.cfi_window_save
	.cfi_register 15, 31
.LLBB2:
	sethi	%gdop_hix22(atomic_lock), %i5
.LLBE2:
	sethi	%hi(_GLOBAL_OFFSET_TABLE_-4), %l7
	call	__sparc_get_pc_thunk.l7
	 add	%l7, %lo(_GLOBAL_OFFSET_TABLE_+4), %l7
.LLBB4:
	.loc 1 51 0
	xor	%i5, %gdop_lox10(atomic_lock), %i5
	ld	[%l7 + %i5], %i5, %gdop(atomic_lock)
	call	pthread_mutex_lock, 0
	 mov	%i5, %o0
	sra	%o0, 31, %g2
.LLVL1:
	orcc	%g2, %o0, %g0
	bne,pn	%icc, .LL7
	 mov	%o0, %g1
.LLVL2:
.LL2:
.LLBE4:
	.loc 1 51 0 is_stmt 0 discriminator 2
	ld	[%i0], %g1
.LLBB5:
	mov	%i5, %o0
.LLBE5:
	add	%g1, 1, %g1
	st	%g1, [%i0]
.LLBB7:
	call	pthread_mutex_unlock, 0
	 nop
	sra	%o0, 31, %g2
.LLVL3:
	orcc	%g2, %o0, %g0
	be,pt	%icc, .LL9
	 mov	%o0, %g1
.LLBB6:
	.loc 1 51 0 discriminator 3
	add	%sp, -264, %sp
	stx	%g0, [%fp-8]
	sethi	%gdop_hix22(.LLC2), %g3
	st	%g1, [%sp+96]
	sethi	%gdop_hix22(.LLC0), %o2
	xor	%g3, %gdop_lox10(.LLC2), %g3
	ld	[%fp-8], %g1
	sethi	%gdop_hix22(.LLC5), %o3
	sethi	%gdop_hix22(.LLC3), %o5
	ld	[%l7 + %g3], %g3, %gdop(.LLC2)
	xor	%o2, %gdop_lox10(.LLC0), %o2
	xor	%o3, %gdop_lox10(.LLC5), %o3
	xor	%o5, %gdop_lox10(.LLC3), %o5
	add	%sp, 120, %i5
.LLVL4:
	ld	[%l7 + %o2], %o2, %gdop(.LLC0)
	st	%g1, [%sp+104]
	mov	256, %o1
	mov	%i5, %o0
.LLVL5:
	ld	[%fp-4], %g1
	mov	%g3, %o4
	ld	[%l7 + %o3], %o3, %gdop(.LLC5)
	ld	[%l7 + %o5], %o5, %gdop(.LLC3)
	st	%g2, [%sp+92]
	st	%g3, [%sp+100]
	call	snprintf, 0
	 st	%g1, [%sp+108]
.LLVL6:
	sethi	%gdop_hix22(.LLC4), %o1
	mov	%i5, %o0
	xor	%o1, %gdop_lox10(.LLC4), %o1
	mov	51, %o2
	call	__assert, 0
	 ld	[%l7 + %o1], %o1, %gdop(.LLC4)
.LL9:
	return	%i7+8
	 nop
.LLVL7:
.LL7:
.LLBE6:
.LLBE7:
.LLBB8:
.LLBB3:
	.loc 1 51 0 discriminator 1
	add	%sp, -264, %sp
	stx	%g0, [%fp-8]
	sethi	%gdop_hix22(.LLC2), %g3
	st	%g1, [%sp+96]
	sethi	%gdop_hix22(.LLC0), %o2
	xor	%g3, %gdop_lox10(.LLC2), %g3
	ld	[%fp-8], %g1
.LLVL8:
	sethi	%gdop_hix22(.LLC1), %o3
	sethi	%gdop_hix22(.LLC3), %o5
	ld	[%l7 + %g3], %g3, %gdop(.LLC2)
	xor	%o2, %gdop_lox10(.LLC0), %o2
	xor	%o3, %gdop_lox10(.LLC1), %o3
	xor	%o5, %gdop_lox10(.LLC3), %o5
	add	%sp, 120, %i4
.LLVL9:
	ld	[%l7 + %o2], %o2, %gdop(.LLC0)
	st	%g1, [%sp+104]
	mov	256, %o1
	mov	%i4, %o0
.LLVL10:
	ld	[%fp-4], %g1
	mov	%g3, %o4
	ld	[%l7 + %o3], %o3, %gdop(.LLC1)
	ld	[%l7 + %o5], %o5, %gdop(.LLC3)
	st	%g2, [%sp+92]
	st	%g3, [%sp+100]
	call	snprintf, 0
	 st	%g1, [%sp+108]
.LLVL11:
	sethi	%gdop_hix22(.LLC4), %o1
	mov	%i4, %o0
	xor	%o1, %gdop_lox10(.LLC4), %o1
	mov	51, %o2
	call	__assert, 0
	 ld	[%l7 + %o1], %o1, %gdop(.LLC4)
	ba,pt	%xcc, .LL2
	 nop
.LLBE3:
.LLBE8:
	.cfi_endproc
.LLFE25:
	.size	atomic_inc_long, .-atomic_inc_long
	.align 4
	.align 32
	.global atomic_inc_8
	.type	atomic_inc_8, #function
	.proc	020
atomic_inc_8:
.LLFB26:
	.loc 1 52 0 is_stmt 1
	.cfi_startproc
.LLVL12:
	save	%sp, -128, %sp
.LLCFI1:
	.cfi_def_cfa_register 30
	.cfi_window_save
	.cfi_register 15, 31
.LLBB9:
	sethi	%gdop_hix22(atomic_lock), %i5
.LLBE9:
	sethi	%hi(_GLOBAL_OFFSET_TABLE_-4), %l7
	call	__sparc_get_pc_thunk.l7
	 add	%l7, %lo(_GLOBAL_OFFSET_TABLE_+4), %l7
.LLBB11:
	.loc 1 52 0
	xor	%i5, %gdop_lox10(atomic_lock), %i5
	ld	[%l7 + %i5], %i5, %gdop(atomic_lock)
	call	pthread_mutex_lock, 0
	 mov	%i5, %o0
	sra	%o0, 31, %g2
.LLVL13:
	orcc	%g2, %o0, %g0
	bne,pn	%icc, .LL15
	 mov	%o0, %g1
.LLVL14:
.LL11:
.LLBE11:
	.loc 1 52 0 is_stmt 0 discriminator 2
	ldub	[%i0], %g1
.LLBB12:
	mov	%i5, %o0
.LLBE12:
	add	%g1, 1, %g1
	stb	%g1, [%i0]
.LLBB14:
	call	pthread_mutex_unlock, 0
	 nop
	sra	%o0, 31, %g2
.LLVL15:
	orcc	%g2, %o0, %g0
	be,pt	%icc, .LL17
	 mov	%o0, %g1
.LLBB13:
	.loc 1 52 0 discriminator 3
	add	%sp, -264, %sp
	stx	%g0, [%fp-8]
	sethi	%gdop_hix22(.LLC2), %g3
	st	%g1, [%sp+96]
	sethi	%gdop_hix22(.LLC0), %o2
	xor	%g3, %gdop_lox10(.LLC2), %g3
	ld	[%fp-8], %g1
	sethi	%gdop_hix22(.LLC5), %o3
	sethi	%gdop_hix22(.LLC3), %o5
	ld	[%l7 + %g3], %g3, %gdop(.LLC2)
	xor	%o2, %gdop_lox10(.LLC0), %o2
	xor	%o3, %gdop_lox10(.LLC5), %o3
	xor	%o5, %gdop_lox10(.LLC3), %o5
	add	%sp, 120, %i5
.LLVL16:
	ld	[%l7 + %o2], %o2, %gdop(.LLC0)
	st	%g1, [%sp+104]
	mov	256, %o1
	mov	%i5, %o0
.LLVL17:
	ld	[%fp-4], %g1
	mov	%g3, %o4
	ld	[%l7 + %o3], %o3, %gdop(.LLC5)
	ld	[%l7 + %o5], %o5, %gdop(.LLC3)
	st	%g2, [%sp+92]
	st	%g3, [%sp+100]
	call	snprintf, 0
	 st	%g1, [%sp+108]
.LLVL18:
	sethi	%gdop_hix22(.LLC4), %o1
	mov	%i5, %o0
	xor	%o1, %gdop_lox10(.LLC4), %o1
	mov	52, %o2
	call	__assert, 0
	 ld	[%l7 + %o1], %o1, %gdop(.LLC4)
.LL17:
	return	%i7+8
	 nop
.LLVL19:
.LL15:
.LLBE13:
.LLBE14:
.LLBB15:
.LLBB10:
	.loc 1 52 0 discriminator 1
	add	%sp, -264, %sp
	stx	%g0, [%fp-8]
	sethi	%gdop_hix22(.LLC2), %g3
	st	%g1, [%sp+96]
	sethi	%gdop_hix22(.LLC0), %o2
	xor	%g3, %gdop_lox10(.LLC2), %g3
	ld	[%fp-8], %g1
.LLVL20:
	sethi	%gdop_hix22(.LLC1), %o3
	sethi	%gdop_hix22(.LLC3), %o5
	ld	[%l7 + %g3], %g3, %gdop(.LLC2)
	xor	%o2, %gdop_lox10(.LLC0), %o2
	xor	%o3, %gdop_lox10(.LLC1), %o3
	xor	%o5, %gdop_lox10(.LLC3), %o5
	add	%sp, 120, %i4
.LLVL21:
	ld	[%l7 + %o2], %o2, %gdop(.LLC0)
	st	%g1, [%sp+104]
	mov	256, %o1
	mov	%i4, %o0
.LLVL22:
	ld	[%fp-4], %g1
	mov	%g3, %o4
	ld	[%l7 + %o3], %o3, %gdop(.LLC1)
	ld	[%l7 + %o5], %o5, %gdop(.LLC3)
	st	%g2, [%sp+92]
	st	%g3, [%sp+100]
	call	snprintf, 0
	 st	%g1, [%sp+108]
.LLVL23:
	sethi	%gdop_hix22(.LLC4), %o1
	mov	%i4, %o0
	xor	%o1, %gdop_lox10(.LLC4), %o1
	mov	52, %o2
	call	__assert, 0
	 ld	[%l7 + %o1], %o1, %gdop(.LLC4)
	ba,pt	%xcc, .LL11
	 nop
.LLBE10:
.LLBE15:
	.cfi_endproc
.LLFE26:
	.size	atomic_inc_8, .-atomic_inc_8
	.align 4
	.align 32
	.global atomic_inc_uchar
	.type	atomic_inc_uchar, #function
	.proc	020
atomic_inc_uchar:
.LLFB27:
	.loc 1 53 0 is_stmt 1
	.cfi_startproc
.LLVL24:
	save	%sp, -128, %sp
.LLCFI2:
	.cfi_def_cfa_register 30
	.cfi_window_save
	.cfi_register 15, 31
.LLBB16:
	sethi	%gdop_hix22(atomic_lock), %i5
.LLBE16:
	sethi	%hi(_GLOBAL_OFFSET_TABLE_-4), %l7
	call	__sparc_get_pc_thunk.l7
	 add	%l7, %lo(_GLOBAL_OFFSET_TABLE_+4), %l7
.LLBB18:
	.loc 1 53 0
	xor	%i5, %gdop_lox10(atomic_lock), %i5
	ld	[%l7 + %i5], %i5, %gdop(atomic_lock)
	call	pthread_mutex_lock, 0
	 mov	%i5, %o0
	sra	%o0, 31, %g2
.LLVL25:
	orcc	%g2, %o0, %g0
	bne,pn	%icc, .LL23
	 mov	%o0, %g1
.LLVL26:
.LL19:
.LLBE18:
	.loc 1 53 0 is_stmt 0 discriminator 2
	ldub	[%i0], %g1
.LLBB19:
	mov	%i5, %o0
.LLBE19:
	add	%g1, 1, %g1
	stb	%g1, [%i0]
.LLBB21:
	call	pthread_mutex_unlock, 0
	 nop
	sra	%o0, 31, %g2
.LLVL27:
	orcc	%g2, %o0, %g0
	be,pt	%icc, .LL25
	 mov	%o0, %g1
.LLBB20:
	.loc 1 53 0 discriminator 3
	add	%sp, -264, %sp
	stx	%g0, [%fp-8]
	sethi	%gdop_hix22(.LLC2), %g3
	st	%g1, [%sp+96]
	sethi	%gdop_hix22(.LLC0), %o2
	xor	%g3, %gdop_lox10(.LLC2), %g3
	ld	[%fp-8], %g1
	sethi	%gdop_hix22(.LLC5), %o3
	sethi	%gdop_hix22(.LLC3), %o5
	ld	[%l7 + %g3], %g3, %gdop(.LLC2)
	xor	%o2, %gdop_lox10(.LLC0), %o2
	xor	%o3, %gdop_lox10(.LLC5), %o3
	xor	%o5, %gdop_lox10(.LLC3), %o5
	add	%sp, 120, %i5
.LLVL28:
	ld	[%l7 + %o2], %o2, %gdop(.LLC0)
	st	%g1, [%sp+104]
	mov	256, %o1
	mov	%i5, %o0
.LLVL29:
	ld	[%fp-4], %g1
	mov	%g3, %o4
	ld	[%l7 + %o3], %o3, %gdop(.LLC5)
	ld	[%l7 + %o5], %o5, %gdop(.LLC3)
	st	%g2, [%sp+92]
	st	%g3, [%sp+100]
	call	snprintf, 0
	 st	%g1, [%sp+108]
.LLVL30:
	sethi	%gdop_hix22(.LLC4), %o1
	mov	%i5, %o0
	xor	%o1, %gdop_lox10(.LLC4), %o1
	mov	53, %o2
	call	__assert, 0
	 ld	[%l7 + %o1], %o1, %gdop(.LLC4)
.LL25:
	return	%i7+8
	 nop
.LLVL31:
.LL23:
.LLBE20:
.LLBE21:
.LLBB22:
.LLBB17:
	.loc 1 53 0 discriminator 1
	add	%sp, -264, %sp
	stx	%g0, [%fp-8]
	sethi	%gdop_hix22(.LLC2), %g3
	st	%g1, [%sp+96]
	sethi	%gdop_hix22(.LLC0), %o2
	xor	%g3, %gdop_lox10(.LLC2), %g3
	ld	[%fp-8], %g1
.LLVL32:
	sethi	%gdop_hix22(.LLC1), %o3
	sethi	%gdop_hix22(.LLC3), %o5
	ld	[%l7 + %g3], %g3, %gdop(.LLC2)
	xor	%o2, %gdop_lox10(.LLC0), %o2
	xor	%o3, %gdop_lox10(.LLC1), %o3
	xor	%o5, %gdop_lox10(.LLC3), %o5
	add	%sp, 120, %i4
.LLVL33:
	ld	[%l7 + %o2], %o2, %gdop(.LLC0)
	st	%g1, [%sp+104]
	mov	256, %o1
	mov	%i4, %o0
.LLVL34:
	ld	[%fp-4], %g1
	mov	%g3, %o4
	ld	[%l7 + %o3], %o3, %gdop(.LLC1)
	ld	[%l7 + %o5], %o5, %gdop(.LLC3)
	st	%g2, [%sp+92]
	st	%g3, [%sp+100]
	call	snprintf, 0
	 st	%g1, [%sp+108]
.LLVL35:
	sethi	%gdop_hix22(.LLC4), %o1
	mov	%i4, %o0
	xor	%o1, %gdop_lox10(.LLC4), %o1
	mov	53, %o2
	call	__assert, 0
	 ld	[%l7 + %o1], %o1, %gdop(.LLC4)
	ba,pt	%xcc, .LL19
	 nop
.LLBE17:
.LLBE22:
	.cfi_endproc
.LLFE27:
	.size	atomic_inc_uchar, .-atomic_inc_uchar
	.align 4
	.align 32
	.global atomic_inc_16
	.type	atomic_inc_16, #function
	.proc	020
atomic_inc_16:
.LLFB28:
	.loc 1 54 0 is_stmt 1
	.cfi_startproc
.LLVL36:
	save	%sp, -128, %sp
.LLCFI3:
	.cfi_def_cfa_register 30
	.cfi_window_save
	.cfi_register 15, 31
.LLBB23:
	sethi	%gdop_hix22(atomic_lock), %i5
.LLBE23:
	sethi	%hi(_GLOBAL_OFFSET_TABLE_-4), %l7
	call	__sparc_get_pc_thunk.l7
	 add	%l7, %lo(_GLOBAL_OFFSET_TABLE_+4), %l7
.LLBB25:
	.loc 1 54 0
	xor	%i5, %gdop_lox10(atomic_lock), %i5
	ld	[%l7 + %i5], %i5, %gdop(atomic_lock)
	call	pthread_mutex_lock, 0
	 mov	%i5, %o0
	sra	%o0, 31, %g2
.LLVL37:
	orcc	%g2, %o0, %g0
	bne,pn	%icc, .LL31
	 mov	%o0, %g1
.LLVL38:
.LL27:
.LLBE25:
	.loc 1 54 0 is_stmt 0 discriminator 2
	lduh	[%i0], %g1
.LLBB26:
	mov	%i5, %o0
.LLBE26:
	add	%g1, 1, %g1
	sth	%g1, [%i0]
.LLBB28:
	call	pthread_mutex_unlock, 0
	 nop
	sra	%o0, 31, %g2
.LLVL39:
	orcc	%g2, %o0, %g0
	be,pt	%icc, .LL33
	 mov	%o0, %g1
.LLBB27:
	.loc 1 54 0 discriminator 3
	add	%sp, -264, %sp
	stx	%g0, [%fp-8]
	sethi	%gdop_hix22(.LLC2), %g3
	st	%g1, [%sp+96]
	sethi	%gdop_hix22(.LLC0), %o2
	xor	%g3, %gdop_lox10(.LLC2), %g3
	ld	[%fp-8], %g1
	sethi	%gdop_hix22(.LLC5), %o3
	sethi	%gdop_hix22(.LLC3), %o5
	ld	[%l7 + %g3], %g3, %gdop(.LLC2)
	xor	%o2, %gdop_lox10(.LLC0), %o2
	xor	%o3, %gdop_lox10(.LLC5), %o3
	xor	%o5, %gdop_lox10(.LLC3), %o5
	add	%sp, 120, %i5
.LLVL40:
	ld	[%l7 + %o2], %o2, %gdop(.LLC0)
	st	%g1, [%sp+104]
	mov	256, %o1
	mov	%i5, %o0
.LLVL41:
	ld	[%fp-4], %g1
	mov	%g3, %o4
	ld	[%l7 + %o3], %o3, %gdop(.LLC5)
	ld	[%l7 + %o5], %o5, %gdop(.LLC3)
	st	%g2, [%sp+92]
	st	%g3, [%sp+100]
	call	snprintf, 0
	 st	%g1, [%sp+108]
.LLVL42:
	sethi	%gdop_hix22(.LLC4), %o1
	mov	%i5, %o0
	xor	%o1, %gdop_lox10(.LLC4), %o1
	mov	54, %o2
	call	__assert, 0
	 ld	[%l7 + %o1], %o1, %gdop(.LLC4)
.LL33:
	return	%i7+8
	 nop
.LLVL43:
.LL31:
.LLBE27:
.LLBE28:
.LLBB29:
.LLBB24:
	.loc 1 54 0 discriminator 1
	add	%sp, -264, %sp
	stx	%g0, [%fp-8]
	sethi	%gdop_hix22(.LLC2), %g3
	st	%g1, [%sp+96]
	sethi	%gdop_hix22(.LLC0), %o2
	xor	%g3, %gdop_lox10(.LLC2), %g3
	ld	[%fp-8], %g1
.LLVL44:
	sethi	%gdop_hix22(.LLC1), %o3
	sethi	%gdop_hix22(.LLC3), %o5
	ld	[%l7 + %g3], %g3, %gdop(.LLC2)
	xor	%o2, %gdop_lox10(.LLC0), %o2
	xor	%o3, %gdop_lox10(.LLC1), %o3
	xor	%o5, %gdop_lox10(.LLC3), %o5
	add	%sp, 120, %i4
.LLVL45:
	ld	[%l7 + %o2], %o2, %gdop(.LLC0)
	st	%g1, [%sp+104]
	mov	256, %o1
	mov	%i4, %o0
.LLVL46:
	ld	[%fp-4], %g1
	mov	%g3, %o4
	ld	[%l7 + %o3], %o3, %gdop(.LLC1)
	ld	[%l7 + %o5], %o5, %gdop(.LLC3)
	st	%g2, [%sp+92]
	st	%g3, [%sp+100]
	call	snprintf, 0
	 st	%g1, [%sp+108]
.LLVL47:
	sethi	%gdop_hix22(.LLC4), %o1
	mov	%i4, %o0
	xor	%o1, %gdop_lox10(.LLC4), %o1
	mov	54, %o2
	call	__assert, 0
	 ld	[%l7 + %o1], %o1, %gdop(.LLC4)
	ba,pt	%xcc, .LL27
	 nop
.LLBE24:
.LLBE29:
	.cfi_endproc
.LLFE28:
	.size	atomic_inc_16, .-atomic_inc_16
	.align 4
	.align 32
	.global atomic_inc_ushort
	.type	atomic_inc_ushort, #function
	.proc	020
atomic_inc_ushort:
.LLFB29:
	.loc 1 55 0 is_stmt 1
	.cfi_startproc
.LLVL48:
	save	%sp, -128, %sp
.LLCFI4:
	.cfi_def_cfa_register 30
	.cfi_window_save
	.cfi_register 15, 31
.LLBB30:
	sethi	%gdop_hix22(atomic_lock), %i5
.LLBE30:
	sethi	%hi(_GLOBAL_OFFSET_TABLE_-4), %l7
	call	__sparc_get_pc_thunk.l7
	 add	%l7, %lo(_GLOBAL_OFFSET_TABLE_+4), %l7
.LLBB32:
	.loc 1 55 0
	xor	%i5, %gdop_lox10(atomic_lock), %i5
	ld	[%l7 + %i5], %i5, %gdop(atomic_lock)
	call	pthread_mutex_lock, 0
	 mov	%i5, %o0
	sra	%o0, 31, %g2
.LLVL49:
	orcc	%g2, %o0, %g0
	bne,pn	%icc, .LL39
	 mov	%o0, %g1
.LLVL50:
.LL35:
.LLBE32:
	.loc 1 55 0 is_stmt 0 discriminator 2
	lduh	[%i0], %g1
.LLBB33:
	mov	%i5, %o0
.LLBE33:
	add	%g1, 1, %g1
	sth	%g1, [%i0]
.LLBB35:
	call	pthread_mutex_unlock, 0
	 nop
	sra	%o0, 31, %g2
.LLVL51:
	orcc	%g2, %o0, %g0
	be,pt	%icc, .LL41
	 mov	%o0, %g1
.LLBB34:
	.loc 1 55 0 discriminator 3
	add	%sp, -264, %sp
	stx	%g0, [%fp-8]
	sethi	%gdop_hix22(.LLC2), %g3
	st	%g1, [%sp+96]
	sethi	%gdop_hix22(.LLC0), %o2
	xor	%g3, %gdop_lox10(.LLC2), %g3
	ld	[%fp-8], %g1
	sethi	%gdop_hix22(.LLC5), %o3
	sethi	%gdop_hix22(.LLC3), %o5
	ld	[%l7 + %g3], %g3, %gdop(.LLC2)
	xor	%o2, %gdop_lox10(.LLC0), %o2
	xor	%o3, %gdop_lox10(.LLC5), %o3
	xor	%o5, %gdop_lox10(.LLC3), %o5
	add	%sp, 120, %i5
.LLVL52:
	ld	[%l7 + %o2], %o2, %gdop(.LLC0)
	st	%g1, [%sp+104]
	mov	256, %o1
	mov	%i5, %o0
.LLVL53:
	ld	[%fp-4], %g1
	mov	%g3, %o4
	ld	[%l7 + %o3], %o3, %gdop(.LLC5)
	ld	[%l7 + %o5], %o5, %gdop(.LLC3)
	st	%g2, [%sp+92]
	st	%g3, [%sp+100]
	call	snprintf, 0
	 st	%g1, [%sp+108]
.LLVL54:
	sethi	%gdop_hix22(.LLC4), %o1
	mov	%i5, %o0
	xor	%o1, %gdop_lox10(.LLC4), %o1
	mov	55, %o2
	call	__assert, 0
	 ld	[%l7 + %o1], %o1, %gdop(.LLC4)
.LL41:
	return	%i7+8
	 nop
.LLVL55:
.LL39:
.LLBE34:
.LLBE35:
.LLBB36:
.LLBB31:
	.loc 1 55 0 discriminator 1
	add	%sp, -264, %sp
	stx	%g0, [%fp-8]
	sethi	%gdop_hix22(.LLC2), %g3
	st	%g1, [%sp+96]
	sethi	%gdop_hix22(.LLC0), %o2
	xor	%g3, %gdop_lox10(.LLC2), %g3
	ld	[%fp-8], %g1
.LLVL56:
	sethi	%gdop_hix22(.LLC1), %o3
	sethi	%gdop_hix22(.LLC3), %o5
	ld	[%l7 + %g3], %g3, %gdop(.LLC2)
	xor	%o2, %gdop_lox10(.LLC0), %o2
	xor	%o3, %gdop_lox10(.LLC1), %o3
	xor	%o5, %gdop_lox10(.LLC3), %o5
	add	%sp, 120, %i4
.LLVL57:
	ld	[%l7 + %o2], %o2, %gdop(.LLC0)
	st	%g1, [%sp+104]
	mov	256, %o1
	mov	%i4, %o0
.LLVL58:
	ld	[%fp-4], %g1
	mov	%g3, %o4
	ld	[%l7 + %o3], %o3, %gdop(.LLC1)
	ld	[%l7 + %o5], %o5, %gdop(.LLC3)
	st	%g2, [%sp+92]
	st	%g3, [%sp+100]
	call	snprintf, 0
	 st	%g1, [%sp+108]
.LLVL59:
	sethi	%gdop_hix22(.LLC4), %o1
	mov	%i4, %o0
	xor	%o1, %gdop_lox10(.LLC4), %o1
	mov	55, %o2
	call	__assert, 0
	 ld	[%l7 + %o1], %o1, %gdop(.LLC4)
	ba,pt	%xcc, .LL35
	 nop
.LLBE31:
.LLBE36:
	.cfi_endproc
.LLFE29:
	.size	atomic_inc_ushort, .-atomic_inc_ushort
	.align 4
	.align 32
	.global atomic_inc_32
	.type	atomic_inc_32, #function
	.proc	020
atomic_inc_32:
.LLFB30:
	.loc 1 56 0 is_stmt 1
	.cfi_startproc
.LLVL60:
	save	%sp, -128, %sp
.LLCFI5:
	.cfi_def_cfa_register 30
	.cfi_window_save
	.cfi_register 15, 31
.LLBB37:
	sethi	%gdop_hix22(atomic_lock), %i5
.LLBE37:
	sethi	%hi(_GLOBAL_OFFSET_TABLE_-4), %l7
	call	__sparc_get_pc_thunk.l7
	 add	%l7, %lo(_GLOBAL_OFFSET_TABLE_+4), %l7
.LLBB39:
	.loc 1 56 0
	xor	%i5, %gdop_lox10(atomic_lock), %i5
	ld	[%l7 + %i5], %i5, %gdop(atomic_lock)
	call	pthread_mutex_lock, 0
	 mov	%i5, %o0
	sra	%o0, 31, %g2
.LLVL61:
	orcc	%g2, %o0, %g0
	bne,pn	%icc, .LL47
	 mov	%o0, %g1
.LLVL62:
.LL43:
.LLBE39:
	.loc 1 56 0 is_stmt 0 discriminator 2
	ld	[%i0], %g1
.LLBB40:
	mov	%i5, %o0
.LLBE40:
	add	%g1, 1, %g1
	st	%g1, [%i0]
.LLBB42:
	call	pthread_mutex_unlock, 0
	 nop
	sra	%o0, 31, %g2
.LLVL63:
	orcc	%g2, %o0, %g0
	be,pt	%icc, .LL49
	 mov	%o0, %g1
.LLBB41:
	.loc 1 56 0 discriminator 3
	add	%sp, -264, %sp
	stx	%g0, [%fp-8]
	sethi	%gdop_hix22(.LLC2), %g3
	st	%g1, [%sp+96]
	sethi	%gdop_hix22(.LLC0), %o2
	xor	%g3, %gdop_lox10(.LLC2), %g3
	ld	[%fp-8], %g1
	sethi	%gdop_hix22(.LLC5), %o3
	sethi	%gdop_hix22(.LLC3), %o5
	ld	[%l7 + %g3], %g3, %gdop(.LLC2)
	xor	%o2, %gdop_lox10(.LLC0), %o2
	xor	%o3, %gdop_lox10(.LLC5), %o3
	xor	%o5, %gdop_lox10(.LLC3), %o5
	add	%sp, 120, %i5
.LLVL64:
	ld	[%l7 + %o2], %o2, %gdop(.LLC0)
	st	%g1, [%sp+104]
	mov	256, %o1
	mov	%i5, %o0
.LLVL65:
	ld	[%fp-4], %g1
	mov	%g3, %o4
	ld	[%l7 + %o3], %o3, %gdop(.LLC5)
	ld	[%l7 + %o5], %o5, %gdop(.LLC3)
	st	%g2, [%sp+92]
	st	%g3, [%sp+100]
	call	snprintf, 0
	 st	%g1, [%sp+108]
.LLVL66:
	sethi	%gdop_hix22(.LLC4), %o1
	mov	%i5, %o0
	xor	%o1, %gdop_lox10(.LLC4), %o1
	mov	56, %o2
	call	__assert, 0
	 ld	[%l7 + %o1], %o1, %gdop(.LLC4)
.LL49:
	return	%i7+8
	 nop
.LLVL67:
.LL47:
.LLBE41:
.LLBE42:
.LLBB43:
.LLBB38:
	.loc 1 56 0 discriminator 1
	add	%sp, -264, %sp
	stx	%g0, [%fp-8]
	sethi	%gdop_hix22(.LLC2), %g3
	st	%g1, [%sp+96]
	sethi	%gdop_hix22(.LLC0), %o2
	xor	%g3, %gdop_lox10(.LLC2), %g3
	ld	[%fp-8], %g1
.LLVL68:
	sethi	%gdop_hix22(.LLC1), %o3
	sethi	%gdop_hix22(.LLC3), %o5
	ld	[%l7 + %g3], %g3, %gdop(.LLC2)
	xor	%o2, %gdop_lox10(.LLC0), %o2
	xor	%o3, %gdop_lox10(.LLC1), %o3
	xor	%o5, %gdop_lox10(.LLC3), %o5
	add	%sp, 120, %i4
.LLVL69:
	ld	[%l7 + %o2], %o2, %gdop(.LLC0)
	st	%g1, [%sp+104]
	mov	256, %o1
	mov	%i4, %o0
.LLVL70:
	ld	[%fp-4], %g1
	mov	%g3, %o4
	ld	[%l7 + %o3], %o3, %gdop(.LLC1)
	ld	[%l7 + %o5], %o5, %gdop(.LLC3)
	st	%g2, [%sp+92]
	st	%g3, [%sp+100]
	call	snprintf, 0
	 st	%g1, [%sp+108]
.LLVL71:
	sethi	%gdop_hix22(.LLC4), %o1
	mov	%i4, %o0
	xor	%o1, %gdop_lox10(.LLC4), %o1
	mov	56, %o2
	call	__assert, 0
	 ld	[%l7 + %o1], %o1, %gdop(.LLC4)
	ba,pt	%xcc, .LL43
	 nop
.LLBE38:
.LLBE43:
	.cfi_endproc
.LLFE30:
	.size	atomic_inc_32, .-atomic_inc_32
	.align 4
	.align 32
	.global atomic_inc_uint
	.type	atomic_inc_uint, #function
	.proc	020
atomic_inc_uint:
.LLFB31:
	.loc 1 57 0 is_stmt 1
	.cfi_startproc
.LLVL72:
	save	%sp, -128, %sp
.LLCFI6:
	.cfi_def_cfa_register 30
	.cfi_window_save
	.cfi_register 15, 31
.LLBB44:
	sethi	%gdop_hix22(atomic_lock), %i5
.LLBE44:
	sethi	%hi(_GLOBAL_OFFSET_TABLE_-4), %l7
	call	__sparc_get_pc_thunk.l7
	 add	%l7, %lo(_GLOBAL_OFFSET_TABLE_+4), %l7
.LLBB46:
	.loc 1 57 0
	xor	%i5, %gdop_lox10(atomic_lock), %i5
	ld	[%l7 + %i5], %i5, %gdop(atomic_lock)
	call	pthread_mutex_lock, 0
	 mov	%i5, %o0
	sra	%o0, 31, %g2
.LLVL73:
	orcc	%g2, %o0, %g0
	bne,pn	%icc, .LL55
	 mov	%o0, %g1
.LLVL74:
.LL51:
.LLBE46:
	.loc 1 57 0 is_stmt 0 discriminator 2
	ld	[%i0], %g1
.LLBB47:
	mov	%i5, %o0
.LLBE47:
	add	%g1, 1, %g1
	st	%g1, [%i0]
.LLBB49:
	call	pthread_mutex_unlock, 0
	 nop
	sra	%o0, 31, %g2
.LLVL75:
	orcc	%g2, %o0, %g0
	be,pt	%icc, .LL57
	 mov	%o0, %g1
.LLBB48:
	.loc 1 57 0 discriminator 3
	add	%sp, -264, %sp
	stx	%g0, [%fp-8]
	sethi	%gdop_hix22(.LLC2), %g3
	st	%g1, [%sp+96]
	sethi	%gdop_hix22(.LLC0), %o2
	xor	%g3, %gdop_lox10(.LLC2), %g3
	ld	[%fp-8], %g1
	sethi	%gdop_hix22(.LLC5), %o3
	sethi	%gdop_hix22(.LLC3), %o5
	ld	[%l7 + %g3], %g3, %gdop(.LLC2)
	xor	%o2, %gdop_lox10(.LLC0), %o2
	xor	%o3, %gdop_lox10(.LLC5), %o3
	xor	%o5, %gdop_lox10(.LLC3), %o5
	add	%sp, 120, %i5
.LLVL76:
	ld	[%l7 + %o2], %o2, %gdop(.LLC0)
	st	%g1, [%sp+104]
	mov	256, %o1
	mov	%i5, %o0
.LLVL77:
	ld	[%fp-4], %g1
	mov	%g3, %o4
	ld	[%l7 + %o3], %o3, %gdop(.LLC5)
	ld	[%l7 + %o5], %o5, %gdop(.LLC3)
	st	%g2, [%sp+92]
	st	%g3, [%sp+100]
	call	snprintf, 0
	 st	%g1, [%sp+108]
.LLVL78:
	sethi	%gdop_hix22(.LLC4), %o1
	mov	%i5, %o0
	xor	%o1, %gdop_lox10(.LLC4), %o1
	mov	57, %o2
	call	__assert, 0
	 ld	[%l7 + %o1], %o1, %gdop(.LLC4)
.LL57:
	return	%i7+8
	 nop
.LLVL79:
.LL55:
.LLBE48:
.LLBE49:
.LLBB50:
.LLBB45:
	.loc 1 57 0 discriminator 1
	add	%sp, -264, %sp
	stx	%g0, [%fp-8]
	sethi	%gdop_hix22(.LLC2), %g3
	st	%g1, [%sp+96]
	sethi	%gdop_hix22(.LLC0), %o2
	xor	%g3, %gdop_lox10(.LLC2), %g3
	ld	[%fp-8], %g1
.LLVL80:
	sethi	%gdop_hix22(.LLC1), %o3
	sethi	%gdop_hix22(.LLC3), %o5
	ld	[%l7 + %g3], %g3, %gdop(.LLC2)
	xor	%o2, %gdop_lox10(.LLC0), %o2
	xor	%o3, %gdop_lox10(.LLC1), %o3
	xor	%o5, %gdop_lox10(.LLC3), %o5
	add	%sp, 120, %i4
.LLVL81:
	ld	[%l7 + %o2], %o2, %gdop(.LLC0)
	st	%g1, [%sp+104]
	mov	256, %o1
	mov	%i4, %o0
.LLVL82:
	ld	[%fp-4], %g1
	mov	%g3, %o4
	ld	[%l7 + %o3], %o3, %gdop(.LLC1)
	ld	[%l7 + %o5], %o5, %gdop(.LLC3)
	st	%g2, [%sp+92]
	st	%g3, [%sp+100]
	call	snprintf, 0
	 st	%g1, [%sp+108]
.LLVL83:
	sethi	%gdop_hix22(.LLC4), %o1
	mov	%i4, %o0
	xor	%o1, %gdop_lox10(.LLC4), %o1
	mov	57, %o2
	call	__assert, 0
	 ld	[%l7 + %o1], %o1, %gdop(.LLC4)
	ba,pt	%xcc, .LL51
	 nop
.LLBE45:
.LLBE50:
	.cfi_endproc
.LLFE31:
	.size	atomic_inc_uint, .-atomic_inc_uint
	.align 4
	.align 32
	.global atomic_inc_ulong
	.type	atomic_inc_ulong, #function
	.proc	020
atomic_inc_ulong:
.LLFB32:
	.loc 1 58 0 is_stmt 1
	.cfi_startproc
.LLVL84:
	save	%sp, -128, %sp
.LLCFI7:
	.cfi_def_cfa_register 30
	.cfi_window_save
	.cfi_register 15, 31
.LLBB51:
	sethi	%gdop_hix22(atomic_lock), %i5
.LLBE51:
	sethi	%hi(_GLOBAL_OFFSET_TABLE_-4), %l7
	call	__sparc_get_pc_thunk.l7
	 add	%l7, %lo(_GLOBAL_OFFSET_TABLE_+4), %l7
.LLBB53:
	.loc 1 58 0
	xor	%i5, %gdop_lox10(atomic_lock), %i5
	ld	[%l7 + %i5], %i5, %gdop(atomic_lock)
	call	pthread_mutex_lock, 0
	 mov	%i5, %o0
	sra	%o0, 31, %g2
.LLVL85:
	orcc	%g2, %o0, %g0
	bne,pn	%icc, .LL63
	 mov	%o0, %g1
.LLVL86:
.LL59:
.LLBE53:
	.loc 1 58 0 is_stmt 0 discriminator 2
	ld	[%i0], %g1
.LLBB54:
	mov	%i5, %o0
.LLBE54:
	add	%g1, 1, %g1
	st	%g1, [%i0]
.LLBB56:
	call	pthread_mutex_unlock, 0
	 nop
	sra	%o0, 31, %g2
.LLVL87:
	orcc	%g2, %o0, %g0
	be,pt	%icc, .LL65
	 mov	%o0, %g1
.LLBB55:
	.loc 1 58 0 discriminator 3
	add	%sp, -264, %sp
	stx	%g0, [%fp-8]
	sethi	%gdop_hix22(.LLC2), %g3
	st	%g1, [%sp+96]
	sethi	%gdop_hix22(.LLC0), %o2
	xor	%g3, %gdop_lox10(.LLC2), %g3
	ld	[%fp-8], %g1
	sethi	%gdop_hix22(.LLC5), %o3
	sethi	%gdop_hix22(.LLC3), %o5
	ld	[%l7 + %g3], %g3, %gdop(.LLC2)
	xor	%o2, %gdop_lox10(.LLC0), %o2
	xor	%o3, %gdop_lox10(.LLC5), %o3
	xor	%o5, %gdop_lox10(.LLC3), %o5
	add	%sp, 120, %i5
.LLVL88:
	ld	[%l7 + %o2], %o2, %gdop(.LLC0)
	st	%g1, [%sp+104]
	mov	256, %o1
	mov	%i5, %o0
.LLVL89:
	ld	[%fp-4], %g1
	mov	%g3, %o4
	ld	[%l7 + %o3], %o3, %gdop(.LLC5)
	ld	[%l7 + %o5], %o5, %gdop(.LLC3)
	st	%g2, [%sp+92]
	st	%g3, [%sp+100]
	call	snprintf, 0
	 st	%g1, [%sp+108]
.LLVL90:
	sethi	%gdop_hix22(.LLC4), %o1
	mov	%i5, %o0
	xor	%o1, %gdop_lox10(.LLC4), %o1
	mov	58, %o2
	call	__assert, 0
	 ld	[%l7 + %o1], %o1, %gdop(.LLC4)
.LL65:
	return	%i7+8
	 nop
.LLVL91:
.LL63:
.LLBE55:
.LLBE56:
.LLBB57:
.LLBB52:
	.loc 1 58 0 discriminator 1
	add	%sp, -264, %sp
	stx	%g0, [%fp-8]
	sethi	%gdop_hix22(.LLC2), %g3
	st	%g1, [%sp+96]
	sethi	%gdop_hix22(.LLC0), %o2
	xor	%g3, %gdop_lox10(.LLC2), %g3
	ld	[%fp-8], %g1
.LLVL92:
	sethi	%gdop_hix22(.LLC1), %o3
	sethi	%gdop_hix22(.LLC3), %o5
	ld	[%l7 + %g3], %g3, %gdop(.LLC2)
	xor	%o2, %gdop_lox10(.LLC0), %o2
	xor	%o3, %gdop_lox10(.LLC1), %o3
	xor	%o5, %gdop_lox10(.LLC3), %o5
	add	%sp, 120, %i4
.LLVL93:
	ld	[%l7 + %o2], %o2, %gdop(.LLC0)
	st	%g1, [%sp+104]
	mov	256, %o1
	mov	%i4, %o0
.LLVL94:
	ld	[%fp-4], %g1
	mov	%g3, %o4
	ld	[%l7 + %o3], %o3, %gdop(.LLC1)
	ld	[%l7 + %o5], %o5, %gdop(.LLC3)
	st	%g2, [%sp+92]
	st	%g3, [%sp+100]
	call	snprintf, 0
	 st	%g1, [%sp+108]
.LLVL95:
	sethi	%gdop_hix22(.LLC4), %o1
	mov	%i4, %o0
	xor	%o1, %gdop_lox10(.LLC4), %o1
	mov	58, %o2
	call	__assert, 0
	 ld	[%l7 + %o1], %o1, %gdop(.LLC4)
	ba,pt	%xcc, .LL59
	 nop
.LLBE52:
.LLBE57:
	.cfi_endproc
.LLFE32:
	.size	atomic_inc_ulong, .-atomic_inc_ulong
	.align 4
	.align 32
	.global atomic_inc_64
	.type	atomic_inc_64, #function
	.proc	020
atomic_inc_64:
.LLFB33:
	.loc 1 59 0 is_stmt 1
	.cfi_startproc
.LLVL96:
	save	%sp, -128, %sp
.LLCFI8:
	.cfi_def_cfa_register 30
	.cfi_window_save
	.cfi_register 15, 31
.LLBB58:
	sethi	%gdop_hix22(atomic_lock), %i5
.LLBE58:
	sethi	%hi(_GLOBAL_OFFSET_TABLE_-4), %l7
	call	__sparc_get_pc_thunk.l7
	 add	%l7, %lo(_GLOBAL_OFFSET_TABLE_+4), %l7
.LLBB60:
	.loc 1 59 0
	xor	%i5, %gdop_lox10(atomic_lock), %i5
	ld	[%l7 + %i5], %i5, %gdop(atomic_lock)
	call	pthread_mutex_lock, 0
	 mov	%i5, %o0
	sra	%o0, 31, %g2
.LLVL97:
	orcc	%g2, %o0, %g0
	bne,pn	%icc, .LL71
	 mov	%o0, %g1
.LLVL98:
.LL67:
.LLBE60:
	.loc 1 59 0 is_stmt 0 discriminator 2
	ldd	[%i0], %g2
.LLBB61:
	mov	%i5, %o0
.LLBE61:
	addcc	%g3, 1, %g3
	addx	%g2, 0, %g2
	std	%g2, [%i0]
.LLBB63:
	call	pthread_mutex_unlock, 0
	 nop
	sra	%o0, 31, %g2
.LLVL99:
	orcc	%g2, %o0, %g0
	be,pt	%icc, .LL73
	 mov	%o0, %g1
.LLBB62:
	.loc 1 59 0 discriminator 3
	add	%sp, -264, %sp
	stx	%g0, [%fp-8]
	sethi	%gdop_hix22(.LLC2), %g3
	st	%g1, [%sp+96]
	sethi	%gdop_hix22(.LLC0), %o2
	xor	%g3, %gdop_lox10(.LLC2), %g3
	ld	[%fp-8], %g1
	sethi	%gdop_hix22(.LLC5), %o3
	sethi	%gdop_hix22(.LLC3), %o5
	ld	[%l7 + %g3], %g3, %gdop(.LLC2)
	xor	%o2, %gdop_lox10(.LLC0), %o2
	xor	%o3, %gdop_lox10(.LLC5), %o3
	xor	%o5, %gdop_lox10(.LLC3), %o5
	add	%sp, 120, %i5
.LLVL100:
	ld	[%l7 + %o2], %o2, %gdop(.LLC0)
	st	%g1, [%sp+104]
	mov	256, %o1
	mov	%i5, %o0
.LLVL101:
	ld	[%fp-4], %g1
	mov	%g3, %o4
	ld	[%l7 + %o3], %o3, %gdop(.LLC5)
	ld	[%l7 + %o5], %o5, %gdop(.LLC3)
	st	%g2, [%sp+92]
	st	%g3, [%sp+100]
	call	snprintf, 0
	 st	%g1, [%sp+108]
.LLVL102:
	sethi	%gdop_hix22(.LLC4), %o1
	mov	%i5, %o0
	xor	%o1, %gdop_lox10(.LLC4), %o1
	mov	59, %o2
	call	__assert, 0
	 ld	[%l7 + %o1], %o1, %gdop(.LLC4)
.LL73:
	return	%i7+8
	 nop
.LLVL103:
.LL71:
.LLBE62:
.LLBE63:
.LLBB64:
.LLBB59:
	.loc 1 59 0 discriminator 1
	add	%sp, -264, %sp
	stx	%g0, [%fp-8]
	sethi	%gdop_hix22(.LLC2), %g3
	st	%g1, [%sp+96]
	sethi	%gdop_hix22(.LLC0), %o2
	xor	%g3, %gdop_lox10(.LLC2), %g3
	ld	[%fp-8], %g1
.LLVL104:
	sethi	%gdop_hix22(.LLC1), %o3
	sethi	%gdop_hix22(.LLC3), %o5
	ld	[%l7 + %g3], %g3, %gdop(.LLC2)
	xor	%o2, %gdop_lox10(.LLC0), %o2
	xor	%o3, %gdop_lox10(.LLC1), %o3
	xor	%o5, %gdop_lox10(.LLC3), %o5
	add	%sp, 120, %i4
.LLVL105:
	ld	[%l7 + %o2], %o2, %gdop(.LLC0)
	st	%g1, [%sp+104]
	mov	256, %o1
	mov	%i4, %o0
.LLVL106:
	ld	[%fp-4], %g1
	mov	%g3, %o4
	ld	[%l7 + %o3], %o3, %gdop(.LLC1)
	ld	[%l7 + %o5], %o5, %gdop(.LLC3)
	st	%g2, [%sp+92]
	st	%g3, [%sp+100]
	call	snprintf, 0
	 st	%g1, [%sp+108]
.LLVL107:
	sethi	%gdop_hix22(.LLC4), %o1
	mov	%i4, %o0
	xor	%o1, %gdop_lox10(.LLC4), %o1
	mov	59, %o2
	call	__assert, 0
	 ld	[%l7 + %o1], %o1, %gdop(.LLC4)
	ba,pt	%xcc, .LL67
	 nop
.LLBE59:
.LLBE64:
	.cfi_endproc
.LLFE33:
	.size	atomic_inc_64, .-atomic_inc_64
	.align 4
	.align 32
	.global atomic_dec_long
	.type	atomic_dec_long, #function
	.proc	020
atomic_dec_long:
.LLFB34:
	.loc 1 70 0 is_stmt 1
	.cfi_startproc
.LLVL108:
	save	%sp, -128, %sp
.LLCFI9:
	.cfi_def_cfa_register 30
	.cfi_window_save
	.cfi_register 15, 31
.LLBB65:
	sethi	%gdop_hix22(atomic_lock), %i5
.LLBE65:
	sethi	%hi(_GLOBAL_OFFSET_TABLE_-4), %l7
	call	__sparc_get_pc_thunk.l7
	 add	%l7, %lo(_GLOBAL_OFFSET_TABLE_+4), %l7
.LLBB67:
	.loc 1 70 0
	xor	%i5, %gdop_lox10(atomic_lock), %i5
	ld	[%l7 + %i5], %i5, %gdop(atomic_lock)
	call	pthread_mutex_lock, 0
	 mov	%i5, %o0
	sra	%o0, 31, %g2
.LLVL109:
	orcc	%g2, %o0, %g0
	bne,pn	%icc, .LL79
	 mov	%o0, %g1
.LLVL110:
.LL75:
.LLBE67:
	.loc 1 70 0 is_stmt 0 discriminator 2
	ld	[%i0], %g1
.LLBB68:
	mov	%i5, %o0
.LLBE68:
	add	%g1, -1, %g1
	st	%g1, [%i0]
.LLBB70:
	call	pthread_mutex_unlock, 0
	 nop
	sra	%o0, 31, %g2
.LLVL111:
	orcc	%g2, %o0, %g0
	be,pt	%icc, .LL81
	 mov	%o0, %g1
.LLBB69:
	.loc 1 70 0 discriminator 3
	add	%sp, -264, %sp
	stx	%g0, [%fp-8]
	sethi	%gdop_hix22(.LLC2), %g3
	st	%g1, [%sp+96]
	sethi	%gdop_hix22(.LLC0), %o2
	xor	%g3, %gdop_lox10(.LLC2), %g3
	ld	[%fp-8], %g1
	sethi	%gdop_hix22(.LLC5), %o3
	sethi	%gdop_hix22(.LLC3), %o5
	ld	[%l7 + %g3], %g3, %gdop(.LLC2)
	xor	%o2, %gdop_lox10(.LLC0), %o2
	xor	%o3, %gdop_lox10(.LLC5), %o3
	xor	%o5, %gdop_lox10(.LLC3), %o5
	add	%sp, 120, %i5
.LLVL112:
	ld	[%l7 + %o2], %o2, %gdop(.LLC0)
	st	%g1, [%sp+104]
	mov	256, %o1
	mov	%i5, %o0
.LLVL113:
	ld	[%fp-4], %g1
	mov	%g3, %o4
	ld	[%l7 + %o3], %o3, %gdop(.LLC5)
	ld	[%l7 + %o5], %o5, %gdop(.LLC3)
	st	%g2, [%sp+92]
	st	%g3, [%sp+100]
	call	snprintf, 0
	 st	%g1, [%sp+108]
.LLVL114:
	sethi	%gdop_hix22(.LLC4), %o1
	mov	%i5, %o0
	xor	%o1, %gdop_lox10(.LLC4), %o1
	mov	70, %o2
	call	__assert, 0
	 ld	[%l7 + %o1], %o1, %gdop(.LLC4)
.LL81:
	return	%i7+8
	 nop
.LLVL115:
.LL79:
.LLBE69:
.LLBE70:
.LLBB71:
.LLBB66:
	.loc 1 70 0 discriminator 1
	add	%sp, -264, %sp
	stx	%g0, [%fp-8]
	sethi	%gdop_hix22(.LLC2), %g3
	st	%g1, [%sp+96]
	sethi	%gdop_hix22(.LLC0), %o2
	xor	%g3, %gdop_lox10(.LLC2), %g3
	ld	[%fp-8], %g1
.LLVL116:
	sethi	%gdop_hix22(.LLC1), %o3
	sethi	%gdop_hix22(.LLC3), %o5
	ld	[%l7 + %g3], %g3, %gdop(.LLC2)
	xor	%o2, %gdop_lox10(.LLC0), %o2
	xor	%o3, %gdop_lox10(.LLC1), %o3
	xor	%o5, %gdop_lox10(.LLC3), %o5
	add	%sp, 120, %i4
.LLVL117:
	ld	[%l7 + %o2], %o2, %gdop(.LLC0)
	st	%g1, [%sp+104]
	mov	256, %o1
	mov	%i4, %o0
.LLVL118:
	ld	[%fp-4], %g1
	mov	%g3, %o4
	ld	[%l7 + %o3], %o3, %gdop(.LLC1)
	ld	[%l7 + %o5], %o5, %gdop(.LLC3)
	st	%g2, [%sp+92]
	st	%g3, [%sp+100]
	call	snprintf, 0
	 st	%g1, [%sp+108]
.LLVL119:
	sethi	%gdop_hix22(.LLC4), %o1
	mov	%i4, %o0
	xor	%o1, %gdop_lox10(.LLC4), %o1
	mov	70, %o2
	call	__assert, 0
	 ld	[%l7 + %o1], %o1, %gdop(.LLC4)
	ba,pt	%xcc, .LL75
	 nop
.LLBE66:
.LLBE71:
	.cfi_endproc
.LLFE34:
	.size	atomic_dec_long, .-atomic_dec_long
	.align 4
	.align 32
	.global atomic_dec_8
	.type	atomic_dec_8, #function
	.proc	020
atomic_dec_8:
.LLFB35:
	.loc 1 71 0 is_stmt 1
	.cfi_startproc
.LLVL120:
	save	%sp, -128, %sp
.LLCFI10:
	.cfi_def_cfa_register 30
	.cfi_window_save
	.cfi_register 15, 31
.LLBB72:
	sethi	%gdop_hix22(atomic_lock), %i5
.LLBE72:
	sethi	%hi(_GLOBAL_OFFSET_TABLE_-4), %l7
	call	__sparc_get_pc_thunk.l7
	 add	%l7, %lo(_GLOBAL_OFFSET_TABLE_+4), %l7
.LLBB74:
	.loc 1 71 0
	xor	%i5, %gdop_lox10(atomic_lock), %i5
	ld	[%l7 + %i5], %i5, %gdop(atomic_lock)
	call	pthread_mutex_lock, 0
	 mov	%i5, %o0
	sra	%o0, 31, %g2
.LLVL121:
	orcc	%g2, %o0, %g0
	bne,pn	%icc, .LL87
	 mov	%o0, %g1
.LLVL122:
.LL83:
.LLBE74:
	.loc 1 71 0 is_stmt 0 discriminator 2
	ldub	[%i0], %g1
.LLBB75:
	mov	%i5, %o0
.LLBE75:
	add	%g1, -1, %g1
	stb	%g1, [%i0]
.LLBB77:
	call	pthread_mutex_unlock, 0
	 nop
	sra	%o0, 31, %g2
.LLVL123:
	orcc	%g2, %o0, %g0
	be,pt	%icc, .LL89
	 mov	%o0, %g1
.LLBB76:
	.loc 1 71 0 discriminator 3
	add	%sp, -264, %sp
	stx	%g0, [%fp-8]
	sethi	%gdop_hix22(.LLC2), %g3
	st	%g1, [%sp+96]
	sethi	%gdop_hix22(.LLC0), %o2
	xor	%g3, %gdop_lox10(.LLC2), %g3
	ld	[%fp-8], %g1
	sethi	%gdop_hix22(.LLC5), %o3
	sethi	%gdop_hix22(.LLC3), %o5
	ld	[%l7 + %g3], %g3, %gdop(.LLC2)
	xor	%o2, %gdop_lox10(.LLC0), %o2
	xor	%o3, %gdop_lox10(.LLC5), %o3
	xor	%o5, %gdop_lox10(.LLC3), %o5
	add	%sp, 120, %i5
.LLVL124:
	ld	[%l7 + %o2], %o2, %gdop(.LLC0)
	st	%g1, [%sp+104]
	mov	256, %o1
	mov	%i5, %o0
.LLVL125:
	ld	[%fp-4], %g1
	mov	%g3, %o4
	ld	[%l7 + %o3], %o3, %gdop(.LLC5)
	ld	[%l7 + %o5], %o5, %gdop(.LLC3)
	st	%g2, [%sp+92]
	st	%g3, [%sp+100]
	call	snprintf, 0
	 st	%g1, [%sp+108]
.LLVL126:
	sethi	%gdop_hix22(.LLC4), %o1
	mov	%i5, %o0
	xor	%o1, %gdop_lox10(.LLC4), %o1
	mov	71, %o2
	call	__assert, 0
	 ld	[%l7 + %o1], %o1, %gdop(.LLC4)
.LL89:
	return	%i7+8
	 nop
.LLVL127:
.LL87:
.LLBE76:
.LLBE77:
.LLBB78:
.LLBB73:
	.loc 1 71 0 discriminator 1
	add	%sp, -264, %sp
	stx	%g0, [%fp-8]
	sethi	%gdop_hix22(.LLC2), %g3
	st	%g1, [%sp+96]
	sethi	%gdop_hix22(.LLC0), %o2
	xor	%g3, %gdop_lox10(.LLC2), %g3
	ld	[%fp-8], %g1
.LLVL128:
	sethi	%gdop_hix22(.LLC1), %o3
	sethi	%gdop_hix22(.LLC3), %o5
	ld	[%l7 + %g3], %g3, %gdop(.LLC2)
	xor	%o2, %gdop_lox10(.LLC0), %o2
	xor	%o3, %gdop_lox10(.LLC1), %o3
	xor	%o5, %gdop_lox10(.LLC3), %o5
	add	%sp, 120, %i4
.LLVL129:
	ld	[%l7 + %o2], %o2, %gdop(.LLC0)
	st	%g1, [%sp+104]
	mov	256, %o1
	mov	%i4, %o0
.LLVL130:
	ld	[%fp-4], %g1
	mov	%g3, %o4
	ld	[%l7 + %o3], %o3, %gdop(.LLC1)
	ld	[%l7 + %o5], %o5, %gdop(.LLC3)
	st	%g2, [%sp+92]
	st	%g3, [%sp+100]
	call	snprintf, 0
	 st	%g1, [%sp+108]
.LLVL131:
	sethi	%gdop_hix22(.LLC4), %o1
	mov	%i4, %o0
	xor	%o1, %gdop_lox10(.LLC4), %o1
	mov	71, %o2
	call	__assert, 0
	 ld	[%l7 + %o1], %o1, %gdop(.LLC4)
	ba,pt	%xcc, .LL83
	 nop
.LLBE73:
.LLBE78:
	.cfi_endproc
.LLFE35:
	.size	atomic_dec_8, .-atomic_dec_8
	.align 4
	.align 32
	.global atomic_dec_uchar
	.type	atomic_dec_uchar, #function
	.proc	020
atomic_dec_uchar:
.LLFB36:
	.loc 1 72 0 is_stmt 1
	.cfi_startproc
.LLVL132:
	save	%sp, -128, %sp
.LLCFI11:
	.cfi_def_cfa_register 30
	.cfi_window_save
	.cfi_register 15, 31
.LLBB79:
	sethi	%gdop_hix22(atomic_lock), %i5
.LLBE79:
	sethi	%hi(_GLOBAL_OFFSET_TABLE_-4), %l7
	call	__sparc_get_pc_thunk.l7
	 add	%l7, %lo(_GLOBAL_OFFSET_TABLE_+4), %l7
.LLBB81:
	.loc 1 72 0
	xor	%i5, %gdop_lox10(atomic_lock), %i5
	ld	[%l7 + %i5], %i5, %gdop(atomic_lock)
	call	pthread_mutex_lock, 0
	 mov	%i5, %o0
	sra	%o0, 31, %g2
.LLVL133:
	orcc	%g2, %o0, %g0
	bne,pn	%icc, .LL95
	 mov	%o0, %g1
.LLVL134:
.LL91:
.LLBE81:
	.loc 1 72 0 is_stmt 0 discriminator 2
	ldub	[%i0], %g1
.LLBB82:
	mov	%i5, %o0
.LLBE82:
	add	%g1, -1, %g1
	stb	%g1, [%i0]
.LLBB84:
	call	pthread_mutex_unlock, 0
	 nop
	sra	%o0, 31, %g2
.LLVL135:
	orcc	%g2, %o0, %g0
	be,pt	%icc, .LL97
	 mov	%o0, %g1
.LLBB83:
	.loc 1 72 0 discriminator 3
	add	%sp, -264, %sp
	stx	%g0, [%fp-8]
	sethi	%gdop_hix22(.LLC2), %g3
	st	%g1, [%sp+96]
	sethi	%gdop_hix22(.LLC0), %o2
	xor	%g3, %gdop_lox10(.LLC2), %g3
	ld	[%fp-8], %g1
	sethi	%gdop_hix22(.LLC5), %o3
	sethi	%gdop_hix22(.LLC3), %o5
	ld	[%l7 + %g3], %g3, %gdop(.LLC2)
	xor	%o2, %gdop_lox10(.LLC0), %o2
	xor	%o3, %gdop_lox10(.LLC5), %o3
	xor	%o5, %gdop_lox10(.LLC3), %o5
	add	%sp, 120, %i5
.LLVL136:
	ld	[%l7 + %o2], %o2, %gdop(.LLC0)
	st	%g1, [%sp+104]
	mov	256, %o1
	mov	%i5, %o0
.LLVL137:
	ld	[%fp-4], %g1
	mov	%g3, %o4
	ld	[%l7 + %o3], %o3, %gdop(.LLC5)
	ld	[%l7 + %o5], %o5, %gdop(.LLC3)
	st	%g2, [%sp+92]
	st	%g3, [%sp+100]
	call	snprintf, 0
	 st	%g1, [%sp+108]
.LLVL138:
	sethi	%gdop_hix22(.LLC4), %o1
	mov	%i5, %o0
	xor	%o1, %gdop_lox10(.LLC4), %o1
	mov	72, %o2
	call	__assert, 0
	 ld	[%l7 + %o1], %o1, %gdop(.LLC4)
.LL97:
	return	%i7+8
	 nop
.LLVL139:
.LL95:
.LLBE83:
.LLBE84:
.LLBB85:
.LLBB80:
	.loc 1 72 0 discriminator 1
	add	%sp, -264, %sp
	stx	%g0, [%fp-8]
	sethi	%gdop_hix22(.LLC2), %g3
	st	%g1, [%sp+96]
	sethi	%gdop_hix22(.LLC0), %o2
	xor	%g3, %gdop_lox10(.LLC2), %g3
	ld	[%fp-8], %g1
.LLVL140:
	sethi	%gdop_hix22(.LLC1), %o3
	sethi	%gdop_hix22(.LLC3), %o5
	ld	[%l7 + %g3], %g3, %gdop(.LLC2)
	xor	%o2, %gdop_lox10(.LLC0), %o2
	xor	%o3, %gdop_lox10(.LLC1), %o3
	xor	%o5, %gdop_lox10(.LLC3), %o5
	add	%sp, 120, %i4
.LLVL141:
	ld	[%l7 + %o2], %o2, %gdop(.LLC0)
	st	%g1, [%sp+104]
	mov	256, %o1
	mov	%i4, %o0
.LLVL142:
	ld	[%fp-4], %g1
	mov	%g3, %o4
	ld	[%l7 + %o3], %o3, %gdop(.LLC1)
	ld	[%l7 + %o5], %o5, %gdop(.LLC3)
	st	%g2, [%sp+92]
	st	%g3, [%sp+100]
	call	snprintf, 0
	 st	%g1, [%sp+108]
.LLVL143:
	sethi	%gdop_hix22(.LLC4), %o1
	mov	%i4, %o0
	xor	%o1, %gdop_lox10(.LLC4), %o1
	mov	72, %o2
	call	__assert, 0
	 ld	[%l7 + %o1], %o1, %gdop(.LLC4)
	ba,pt	%xcc, .LL91
	 nop
.LLBE80:
.LLBE85:
	.cfi_endproc
.LLFE36:
	.size	atomic_dec_uchar, .-atomic_dec_uchar
	.align 4
	.align 32
	.global atomic_dec_16
	.type	atomic_dec_16, #function
	.proc	020
atomic_dec_16:
.LLFB37:
	.loc 1 73 0 is_stmt 1
	.cfi_startproc
.LLVL144:
	save	%sp, -128, %sp
.LLCFI12:
	.cfi_def_cfa_register 30
	.cfi_window_save
	.cfi_register 15, 31
.LLBB86:
	sethi	%gdop_hix22(atomic_lock), %i5
.LLBE86:
	sethi	%hi(_GLOBAL_OFFSET_TABLE_-4), %l7
	call	__sparc_get_pc_thunk.l7
	 add	%l7, %lo(_GLOBAL_OFFSET_TABLE_+4), %l7
.LLBB88:
	.loc 1 73 0
	xor	%i5, %gdop_lox10(atomic_lock), %i5
	ld	[%l7 + %i5], %i5, %gdop(atomic_lock)
	call	pthread_mutex_lock, 0
	 mov	%i5, %o0
	sra	%o0, 31, %g2
.LLVL145:
	orcc	%g2, %o0, %g0
	bne,pn	%icc, .LL103
	 mov	%o0, %g1
.LLVL146:
.LL99:
.LLBE88:
	.loc 1 73 0 is_stmt 0 discriminator 2
	lduh	[%i0], %g1
.LLBB89:
	mov	%i5, %o0
.LLBE89:
	add	%g1, -1, %g1
	sth	%g1, [%i0]
.LLBB91:
	call	pthread_mutex_unlock, 0
	 nop
	sra	%o0, 31, %g2
.LLVL147:
	orcc	%g2, %o0, %g0
	be,pt	%icc, .LL105
	 mov	%o0, %g1
.LLBB90:
	.loc 1 73 0 discriminator 3
	add	%sp, -264, %sp
	stx	%g0, [%fp-8]
	sethi	%gdop_hix22(.LLC2), %g3
	st	%g1, [%sp+96]
	sethi	%gdop_hix22(.LLC0), %o2
	xor	%g3, %gdop_lox10(.LLC2), %g3
	ld	[%fp-8], %g1
	sethi	%gdop_hix22(.LLC5), %o3
	sethi	%gdop_hix22(.LLC3), %o5
	ld	[%l7 + %g3], %g3, %gdop(.LLC2)
	xor	%o2, %gdop_lox10(.LLC0), %o2
	xor	%o3, %gdop_lox10(.LLC5), %o3
	xor	%o5, %gdop_lox10(.LLC3), %o5
	add	%sp, 120, %i5
.LLVL148:
	ld	[%l7 + %o2], %o2, %gdop(.LLC0)
	st	%g1, [%sp+104]
	mov	256, %o1
	mov	%i5, %o0
.LLVL149:
	ld	[%fp-4], %g1
	mov	%g3, %o4
	ld	[%l7 + %o3], %o3, %gdop(.LLC5)
	ld	[%l7 + %o5], %o5, %gdop(.LLC3)
	st	%g2, [%sp+92]
	st	%g3, [%sp+100]
	call	snprintf, 0
	 st	%g1, [%sp+108]
.LLVL150:
	sethi	%gdop_hix22(.LLC4), %o1
	mov	%i5, %o0
	xor	%o1, %gdop_lox10(.LLC4), %o1
	mov	73, %o2
	call	__assert, 0
	 ld	[%l7 + %o1], %o1, %gdop(.LLC4)
.LL105:
	return	%i7+8
	 nop
.LLVL151:
.LL103:
.LLBE90:
.LLBE91:
.LLBB92:
.LLBB87:
	.loc 1 73 0 discriminator 1
	add	%sp, -264, %sp
	stx	%g0, [%fp-8]
	sethi	%gdop_hix22(.LLC2), %g3
	st	%g1, [%sp+96]
	sethi	%gdop_hix22(.LLC0), %o2
	xor	%g3, %gdop_lox10(.LLC2), %g3
	ld	[%fp-8], %g1
.LLVL152:
	sethi	%gdop_hix22(.LLC1), %o3
	sethi	%gdop_hix22(.LLC3), %o5
	ld	[%l7 + %g3], %g3, %gdop(.LLC2)
	xor	%o2, %gdop_lox10(.LLC0), %o2
	xor	%o3, %gdop_lox10(.LLC1), %o3
	xor	%o5, %gdop_lox10(.LLC3), %o5
	add	%sp, 120, %i4
.LLVL153:
	ld	[%l7 + %o2], %o2, %gdop(.LLC0)
	st	%g1, [%sp+104]
	mov	256, %o1
	mov	%i4, %o0
.LLVL154:
	ld	[%fp-4], %g1
	mov	%g3, %o4
	ld	[%l7 + %o3], %o3, %gdop(.LLC1)
	ld	[%l7 + %o5], %o5, %gdop(.LLC3)
	st	%g2, [%sp+92]
	st	%g3, [%sp+100]
	call	snprintf, 0
	 st	%g1, [%sp+108]
.LLVL155:
	sethi	%gdop_hix22(.LLC4), %o1
	mov	%i4, %o0
	xor	%o1, %gdop_lox10(.LLC4), %o1
	mov	73, %o2
	call	__assert, 0
	 ld	[%l7 + %o1], %o1, %gdop(.LLC4)
	ba,pt	%xcc, .LL99
	 nop
.LLBE87:
.LLBE92:
	.cfi_endproc
.LLFE37:
	.size	atomic_dec_16, .-atomic_dec_16
	.align 4
	.align 32
	.global atomic_dec_ushort
	.type	atomic_dec_ushort, #function
	.proc	020
atomic_dec_ushort:
.LLFB38:
	.loc 1 74 0 is_stmt 1
	.cfi_startproc
.LLVL156:
	save	%sp, -128, %sp
.LLCFI13:
	.cfi_def_cfa_register 30
	.cfi_window_save
	.cfi_register 15, 31
.LLBB93:
	sethi	%gdop_hix22(atomic_lock), %i5
.LLBE93:
	sethi	%hi(_GLOBAL_OFFSET_TABLE_-4), %l7
	call	__sparc_get_pc_thunk.l7
	 add	%l7, %lo(_GLOBAL_OFFSET_TABLE_+4), %l7
.LLBB95:
	.loc 1 74 0
	xor	%i5, %gdop_lox10(atomic_lock), %i5
	ld	[%l7 + %i5], %i5, %gdop(atomic_lock)
	call	pthread_mutex_lock, 0
	 mov	%i5, %o0
	sra	%o0, 31, %g2
.LLVL157:
	orcc	%g2, %o0, %g0
	bne,pn	%icc, .LL111
	 mov	%o0, %g1
.LLVL158:
.LL107:
.LLBE95:
	.loc 1 74 0 is_stmt 0 discriminator 2
	lduh	[%i0], %g1
.LLBB96:
	mov	%i5, %o0
.LLBE96:
	add	%g1, -1, %g1
	sth	%g1, [%i0]
.LLBB98:
	call	pthread_mutex_unlock, 0
	 nop
	sra	%o0, 31, %g2
.LLVL159:
	orcc	%g2, %o0, %g0
	be,pt	%icc, .LL113
	 mov	%o0, %g1
.LLBB97:
	.loc 1 74 0 discriminator 3
	add	%sp, -264, %sp
	stx	%g0, [%fp-8]
	sethi	%gdop_hix22(.LLC2), %g3
	st	%g1, [%sp+96]
	sethi	%gdop_hix22(.LLC0), %o2
	xor	%g3, %gdop_lox10(.LLC2), %g3
	ld	[%fp-8], %g1
	sethi	%gdop_hix22(.LLC5), %o3
	sethi	%gdop_hix22(.LLC3), %o5
	ld	[%l7 + %g3], %g3, %gdop(.LLC2)
	xor	%o2, %gdop_lox10(.LLC0), %o2
	xor	%o3, %gdop_lox10(.LLC5), %o3
	xor	%o5, %gdop_lox10(.LLC3), %o5
	add	%sp, 120, %i5
.LLVL160:
	ld	[%l7 + %o2], %o2, %gdop(.LLC0)
	st	%g1, [%sp+104]
	mov	256, %o1
	mov	%i5, %o0
.LLVL161:
	ld	[%fp-4], %g1
	mov	%g3, %o4
	ld	[%l7 + %o3], %o3, %gdop(.LLC5)
	ld	[%l7 + %o5], %o5, %gdop(.LLC3)
	st	%g2, [%sp+92]
	st	%g3, [%sp+100]
	call	snprintf, 0
	 st	%g1, [%sp+108]
.LLVL162:
	sethi	%gdop_hix22(.LLC4), %o1
	mov	%i5, %o0
	xor	%o1, %gdop_lox10(.LLC4), %o1
	mov	74, %o2
	call	__assert, 0
	 ld	[%l7 + %o1], %o1, %gdop(.LLC4)
.LL113:
	return	%i7+8
	 nop
.LLVL163:
.LL111:
.LLBE97:
.LLBE98:
.LLBB99:
.LLBB94:
	.loc 1 74 0 discriminator 1
	add	%sp, -264, %sp
	stx	%g0, [%fp-8]
	sethi	%gdop_hix22(.LLC2), %g3
	st	%g1, [%sp+96]
	sethi	%gdop_hix22(.LLC0), %o2
	xor	%g3, %gdop_lox10(.LLC2), %g3
	ld	[%fp-8], %g1
.LLVL164:
	sethi	%gdop_hix22(.LLC1), %o3
	sethi	%gdop_hix22(.LLC3), %o5
	ld	[%l7 + %g3], %g3, %gdop(.LLC2)
	xor	%o2, %gdop_lox10(.LLC0), %o2
	xor	%o3, %gdop_lox10(.LLC1), %o3
	xor	%o5, %gdop_lox10(.LLC3), %o5
	add	%sp, 120, %i4
.LLVL165:
	ld	[%l7 + %o2], %o2, %gdop(.LLC0)
	st	%g1, [%sp+104]
	mov	256, %o1
	mov	%i4, %o0
.LLVL166:
	ld	[%fp-4], %g1
	mov	%g3, %o4
	ld	[%l7 + %o3], %o3, %gdop(.LLC1)
	ld	[%l7 + %o5], %o5, %gdop(.LLC3)
	st	%g2, [%sp+92]
	st	%g3, [%sp+100]
	call	snprintf, 0
	 st	%g1, [%sp+108]
.LLVL167:
	sethi	%gdop_hix22(.LLC4), %o1
	mov	%i4, %o0
	xor	%o1, %gdop_lox10(.LLC4), %o1
	mov	74, %o2
	call	__assert, 0
	 ld	[%l7 + %o1], %o1, %gdop(.LLC4)
	ba,pt	%xcc, .LL107
	 nop
.LLBE94:
.LLBE99:
	.cfi_endproc
.LLFE38:
	.size	atomic_dec_ushort, .-atomic_dec_ushort
	.align 4
	.align 32
	.global atomic_dec_32
	.type	atomic_dec_32, #function
	.proc	020
atomic_dec_32:
.LLFB39:
	.loc 1 75 0 is_stmt 1
	.cfi_startproc
.LLVL168:
	save	%sp, -128, %sp
.LLCFI14:
	.cfi_def_cfa_register 30
	.cfi_window_save
	.cfi_register 15, 31
.LLBB100:
	sethi	%gdop_hix22(atomic_lock), %i5
.LLBE100:
	sethi	%hi(_GLOBAL_OFFSET_TABLE_-4), %l7
	call	__sparc_get_pc_thunk.l7
	 add	%l7, %lo(_GLOBAL_OFFSET_TABLE_+4), %l7
.LLBB102:
	.loc 1 75 0
	xor	%i5, %gdop_lox10(atomic_lock), %i5
	ld	[%l7 + %i5], %i5, %gdop(atomic_lock)
	call	pthread_mutex_lock, 0
	 mov	%i5, %o0
	sra	%o0, 31, %g2
.LLVL169:
	orcc	%g2, %o0, %g0
	bne,pn	%icc, .LL119
	 mov	%o0, %g1
.LLVL170:
.LL115:
.LLBE102:
	.loc 1 75 0 is_stmt 0 discriminator 2
	ld	[%i0], %g1
.LLBB103:
	mov	%i5, %o0
.LLBE103:
	add	%g1, -1, %g1
	st	%g1, [%i0]
.LLBB105:
	call	pthread_mutex_unlock, 0
	 nop
	sra	%o0, 31, %g2
.LLVL171:
	orcc	%g2, %o0, %g0
	be,pt	%icc, .LL121
	 mov	%o0, %g1
.LLBB104:
	.loc 1 75 0 discriminator 3
	add	%sp, -264, %sp
	stx	%g0, [%fp-8]
	sethi	%gdop_hix22(.LLC2), %g3
	st	%g1, [%sp+96]
	sethi	%gdop_hix22(.LLC0), %o2
	xor	%g3, %gdop_lox10(.LLC2), %g3
	ld	[%fp-8], %g1
	sethi	%gdop_hix22(.LLC5), %o3
	sethi	%gdop_hix22(.LLC3), %o5
	ld	[%l7 + %g3], %g3, %gdop(.LLC2)
	xor	%o2, %gdop_lox10(.LLC0), %o2
	xor	%o3, %gdop_lox10(.LLC5), %o3
	xor	%o5, %gdop_lox10(.LLC3), %o5
	add	%sp, 120, %i5
.LLVL172:
	ld	[%l7 + %o2], %o2, %gdop(.LLC0)
	st	%g1, [%sp+104]
	mov	256, %o1
	mov	%i5, %o0
.LLVL173:
	ld	[%fp-4], %g1
	mov	%g3, %o4
	ld	[%l7 + %o3], %o3, %gdop(.LLC5)
	ld	[%l7 + %o5], %o5, %gdop(.LLC3)
	st	%g2, [%sp+92]
	st	%g3, [%sp+100]
	call	snprintf, 0
	 st	%g1, [%sp+108]
.LLVL174:
	sethi	%gdop_hix22(.LLC4), %o1
	mov	%i5, %o0
	xor	%o1, %gdop_lox10(.LLC4), %o1
	mov	75, %o2
	call	__assert, 0
	 ld	[%l7 + %o1], %o1, %gdop(.LLC4)
.LL121:
	return	%i7+8
	 nop
.LLVL175:
.LL119:
.LLBE104:
.LLBE105:
.LLBB106:
.LLBB101:
	.loc 1 75 0 discriminator 1
	add	%sp, -264, %sp
	stx	%g0, [%fp-8]
	sethi	%gdop_hix22(.LLC2), %g3
	st	%g1, [%sp+96]
	sethi	%gdop_hix22(.LLC0), %o2
	xor	%g3, %gdop_lox10(.LLC2), %g3
	ld	[%fp-8], %g1
.LLVL176:
	sethi	%gdop_hix22(.LLC1), %o3
	sethi	%gdop_hix22(.LLC3), %o5
	ld	[%l7 + %g3], %g3, %gdop(.LLC2)
	xor	%o2, %gdop_lox10(.LLC0), %o2
	xor	%o3, %gdop_lox10(.LLC1), %o3
	xor	%o5, %gdop_lox10(.LLC3), %o5
	add	%sp, 120, %i4
.LLVL177:
	ld	[%l7 + %o2], %o2, %gdop(.LLC0)
	st	%g1, [%sp+104]
	mov	256, %o1
	mov	%i4, %o0
.LLVL178:
	ld	[%fp-4], %g1
	mov	%g3, %o4
	ld	[%l7 + %o3], %o3, %gdop(.LLC1)
	ld	[%l7 + %o5], %o5, %gdop(.LLC3)
	st	%g2, [%sp+92]
	st	%g3, [%sp+100]
	call	snprintf, 0
	 st	%g1, [%sp+108]
.LLVL179:
	sethi	%gdop_hix22(.LLC4), %o1
	mov	%i4, %o0
	xor	%o1, %gdop_lox10(.LLC4), %o1
	mov	75, %o2
	call	__assert, 0
	 ld	[%l7 + %o1], %o1, %gdop(.LLC4)
	ba,pt	%xcc, .LL115
	 nop
.LLBE101:
.LLBE106:
	.cfi_endproc
.LLFE39:
	.size	atomic_dec_32, .-atomic_dec_32
	.align 4
	.align 32
	.global atomic_dec_uint
	.type	atomic_dec_uint, #function
	.proc	020
atomic_dec_uint:
.LLFB40:
	.loc 1 76 0 is_stmt 1
	.cfi_startproc
.LLVL180:
	save	%sp, -128, %sp
.LLCFI15:
	.cfi_def_cfa_register 30
	.cfi_window_save
	.cfi_register 15, 31
.LLBB107:
	sethi	%gdop_hix22(atomic_lock), %i5
.LLBE107:
	sethi	%hi(_GLOBAL_OFFSET_TABLE_-4), %l7
	call	__sparc_get_pc_thunk.l7
	 add	%l7, %lo(_GLOBAL_OFFSET_TABLE_+4), %l7
.LLBB109:
	.loc 1 76 0
	xor	%i5, %gdop_lox10(atomic_lock), %i5
	ld	[%l7 + %i5], %i5, %gdop(atomic_lock)
	call	pthread_mutex_lock, 0
	 mov	%i5, %o0
	sra	%o0, 31, %g2
.LLVL181:
	orcc	%g2, %o0, %g0
	bne,pn	%icc, .LL127
	 mov	%o0, %g1
.LLVL182:
.LL123:
.LLBE109:
	.loc 1 76 0 is_stmt 0 discriminator 2
	ld	[%i0], %g1
.LLBB110:
	mov	%i5, %o0
.LLBE110:
	add	%g1, -1, %g1
	st	%g1, [%i0]
.LLBB112:
	call	pthread_mutex_unlock, 0
	 nop
	sra	%o0, 31, %g2
.LLVL183:
	orcc	%g2, %o0, %g0
	be,pt	%icc, .LL129
	 mov	%o0, %g1
.LLBB111:
	.loc 1 76 0 discriminator 3
	add	%sp, -264, %sp
	stx	%g0, [%fp-8]
	sethi	%gdop_hix22(.LLC2), %g3
	st	%g1, [%sp+96]
	sethi	%gdop_hix22(.LLC0), %o2
	xor	%g3, %gdop_lox10(.LLC2), %g3
	ld	[%fp-8], %g1
	sethi	%gdop_hix22(.LLC5), %o3
	sethi	%gdop_hix22(.LLC3), %o5
	ld	[%l7 + %g3], %g3, %gdop(.LLC2)
	xor	%o2, %gdop_lox10(.LLC0), %o2
	xor	%o3, %gdop_lox10(.LLC5), %o3
	xor	%o5, %gdop_lox10(.LLC3), %o5
	add	%sp, 120, %i5
.LLVL184:
	ld	[%l7 + %o2], %o2, %gdop(.LLC0)
	st	%g1, [%sp+104]
	mov	256, %o1
	mov	%i5, %o0
.LLVL185:
	ld	[%fp-4], %g1
	mov	%g3, %o4
	ld	[%l7 + %o3], %o3, %gdop(.LLC5)
	ld	[%l7 + %o5], %o5, %gdop(.LLC3)
	st	%g2, [%sp+92]
	st	%g3, [%sp+100]
	call	snprintf, 0
	 st	%g1, [%sp+108]
.LLVL186:
	sethi	%gdop_hix22(.LLC4), %o1
	mov	%i5, %o0
	xor	%o1, %gdop_lox10(.LLC4), %o1
	mov	76, %o2
	call	__assert, 0
	 ld	[%l7 + %o1], %o1, %gdop(.LLC4)
.LL129:
	return	%i7+8
	 nop
.LLVL187:
.LL127:
.LLBE111:
.LLBE112:
.LLBB113:
.LLBB108:
	.loc 1 76 0 discriminator 1
	add	%sp, -264, %sp
	stx	%g0, [%fp-8]
	sethi	%gdop_hix22(.LLC2), %g3
	st	%g1, [%sp+96]
	sethi	%gdop_hix22(.LLC0), %o2
	xor	%g3, %gdop_lox10(.LLC2), %g3
	ld	[%fp-8], %g1
.LLVL188:
	sethi	%gdop_hix22(.LLC1), %o3
	sethi	%gdop_hix22(.LLC3), %o5
	ld	[%l7 + %g3], %g3, %gdop(.LLC2)
	xor	%o2, %gdop_lox10(.LLC0), %o2
	xor	%o3, %gdop_lox10(.LLC1), %o3
	xor	%o5, %gdop_lox10(.LLC3), %o5
	add	%sp, 120, %i4
.LLVL189:
	ld	[%l7 + %o2], %o2, %gdop(.LLC0)
	st	%g1, [%sp+104]
	mov	256, %o1
	mov	%i4, %o0
.LLVL190:
	ld	[%fp-4], %g1
	mov	%g3, %o4
	ld	[%l7 + %o3], %o3, %gdop(.LLC1)
	ld	[%l7 + %o5], %o5, %gdop(.LLC3)
	st	%g2, [%sp+92]
	st	%g3, [%sp+100]
	call	snprintf, 0
	 st	%g1, [%sp+108]
.LLVL191:
	sethi	%gdop_hix22(.LLC4), %o1
	mov	%i4, %o0
	xor	%o1, %gdop_lox10(.LLC4), %o1
	mov	76, %o2
	call	__assert, 0
	 ld	[%l7 + %o1], %o1, %gdop(.LLC4)
	ba,pt	%xcc, .LL123
	 nop
.LLBE108:
.LLBE113:
	.cfi_endproc
.LLFE40:
	.size	atomic_dec_uint, .-atomic_dec_uint
	.align 4
	.align 32
	.global atomic_dec_ulong
	.type	atomic_dec_ulong, #function
	.proc	020
atomic_dec_ulong:
.LLFB41:
	.loc 1 77 0 is_stmt 1
	.cfi_startproc
.LLVL192:
	save	%sp, -128, %sp
.LLCFI16:
	.cfi_def_cfa_register 30
	.cfi_window_save
	.cfi_register 15, 31
.LLBB114:
	sethi	%gdop_hix22(atomic_lock), %i5
.LLBE114:
	sethi	%hi(_GLOBAL_OFFSET_TABLE_-4), %l7
	call	__sparc_get_pc_thunk.l7
	 add	%l7, %lo(_GLOBAL_OFFSET_TABLE_+4), %l7
.LLBB116:
	.loc 1 77 0
	xor	%i5, %gdop_lox10(atomic_lock), %i5
	ld	[%l7 + %i5], %i5, %gdop(atomic_lock)
	call	pthread_mutex_lock, 0
	 mov	%i5, %o0
	sra	%o0, 31, %g2
.LLVL193:
	orcc	%g2, %o0, %g0
	bne,pn	%icc, .LL135
	 mov	%o0, %g1
.LLVL194:
.LL131:
.LLBE116:
	.loc 1 77 0 is_stmt 0 discriminator 2
	ld	[%i0], %g1
.LLBB117:
	mov	%i5, %o0
.LLBE117:
	add	%g1, -1, %g1
	st	%g1, [%i0]
.LLBB119:
	call	pthread_mutex_unlock, 0
	 nop
	sra	%o0, 31, %g2
.LLVL195:
	orcc	%g2, %o0, %g0
	be,pt	%icc, .LL137
	 mov	%o0, %g1
.LLBB118:
	.loc 1 77 0 discriminator 3
	add	%sp, -264, %sp
	stx	%g0, [%fp-8]
	sethi	%gdop_hix22(.LLC2), %g3
	st	%g1, [%sp+96]
	sethi	%gdop_hix22(.LLC0), %o2
	xor	%g3, %gdop_lox10(.LLC2), %g3
	ld	[%fp-8], %g1
	sethi	%gdop_hix22(.LLC5), %o3
	sethi	%gdop_hix22(.LLC3), %o5
	ld	[%l7 + %g3], %g3, %gdop(.LLC2)
	xor	%o2, %gdop_lox10(.LLC0), %o2
	xor	%o3, %gdop_lox10(.LLC5), %o3
	xor	%o5, %gdop_lox10(.LLC3), %o5
	add	%sp, 120, %i5
.LLVL196:
	ld	[%l7 + %o2], %o2, %gdop(.LLC0)
	st	%g1, [%sp+104]
	mov	256, %o1
	mov	%i5, %o0
.LLVL197:
	ld	[%fp-4], %g1
	mov	%g3, %o4
	ld	[%l7 + %o3], %o3, %gdop(.LLC5)
	ld	[%l7 + %o5], %o5, %gdop(.LLC3)
	st	%g2, [%sp+92]
	st	%g3, [%sp+100]
	call	snprintf, 0
	 st	%g1, [%sp+108]
.LLVL198:
	sethi	%gdop_hix22(.LLC4), %o1
	mov	%i5, %o0
	xor	%o1, %gdop_lox10(.LLC4), %o1
	mov	77, %o2
	call	__assert, 0
	 ld	[%l7 + %o1], %o1, %gdop(.LLC4)
.LL137:
	return	%i7+8
	 nop
.LLVL199:
.LL135:
.LLBE118:
.LLBE119:
.LLBB120:
.LLBB115:
	.loc 1 77 0 discriminator 1
	add	%sp, -264, %sp
	stx	%g0, [%fp-8]
	sethi	%gdop_hix22(.LLC2), %g3
	st	%g1, [%sp+96]
	sethi	%gdop_hix22(.LLC0), %o2
	xor	%g3, %gdop_lox10(.LLC2), %g3
	ld	[%fp-8], %g1
.LLVL200:
	sethi	%gdop_hix22(.LLC1), %o3
	sethi	%gdop_hix22(.LLC3), %o5
	ld	[%l7 + %g3], %g3, %gdop(.LLC2)
	xor	%o2, %gdop_lox10(.LLC0), %o2
	xor	%o3, %gdop_lox10(.LLC1), %o3
	xor	%o5, %gdop_lox10(.LLC3), %o5
	add	%sp, 120, %i4
.LLVL201:
	ld	[%l7 + %o2], %o2, %gdop(.LLC0)
	st	%g1, [%sp+104]
	mov	256, %o1
	mov	%i4, %o0
.LLVL202:
	ld	[%fp-4], %g1
	mov	%g3, %o4
	ld	[%l7 + %o3], %o3, %gdop(.LLC1)
	ld	[%l7 + %o5], %o5, %gdop(.LLC3)
	st	%g2, [%sp+92]
	st	%g3, [%sp+100]
	call	snprintf, 0
	 st	%g1, [%sp+108]
.LLVL203:
	sethi	%gdop_hix22(.LLC4), %o1
	mov	%i4, %o0
	xor	%o1, %gdop_lox10(.LLC4), %o1
	mov	77, %o2
	call	__assert, 0
	 ld	[%l7 + %o1], %o1, %gdop(.LLC4)
	ba,pt	%xcc, .LL131
	 nop
.LLBE115:
.LLBE120:
	.cfi_endproc
.LLFE41:
	.size	atomic_dec_ulong, .-atomic_dec_ulong
	.align 4
	.align 32
	.global atomic_dec_64
	.type	atomic_dec_64, #function
	.proc	020
atomic_dec_64:
.LLFB42:
	.loc 1 78 0 is_stmt 1
	.cfi_startproc
.LLVL204:
	save	%sp, -128, %sp
.LLCFI17:
	.cfi_def_cfa_register 30
	.cfi_window_save
	.cfi_register 15, 31
.LLBB121:
	sethi	%gdop_hix22(atomic_lock), %i5
.LLBE121:
	sethi	%hi(_GLOBAL_OFFSET_TABLE_-4), %l7
	call	__sparc_get_pc_thunk.l7
	 add	%l7, %lo(_GLOBAL_OFFSET_TABLE_+4), %l7
.LLBB123:
	.loc 1 78 0
	xor	%i5, %gdop_lox10(atomic_lock), %i5
	ld	[%l7 + %i5], %i5, %gdop(atomic_lock)
	call	pthread_mutex_lock, 0
	 mov	%i5, %o0
	sra	%o0, 31, %g2
.LLVL205:
	orcc	%g2, %o0, %g0
	bne,pn	%icc, .LL143
	 mov	%o0, %g1
.LLVL206:
.LL139:
.LLBE123:
	.loc 1 78 0 is_stmt 0 discriminator 2
	ldd	[%i0], %g2
.LLBB124:
	mov	%i5, %o0
.LLBE124:
	addcc	%g3, -1, %g3
	addx	%g2, -1, %g2
	std	%g2, [%i0]
.LLBB126:
	call	pthread_mutex_unlock, 0
	 nop
	sra	%o0, 31, %g2
.LLVL207:
	orcc	%g2, %o0, %g0
	be,pt	%icc, .LL145
	 mov	%o0, %g1
.LLBB125:
	.loc 1 78 0 discriminator 3
	add	%sp, -264, %sp
	stx	%g0, [%fp-8]
	sethi	%gdop_hix22(.LLC2), %g3
	st	%g1, [%sp+96]
	sethi	%gdop_hix22(.LLC0), %o2
	xor	%g3, %gdop_lox10(.LLC2), %g3
	ld	[%fp-8], %g1
	sethi	%gdop_hix22(.LLC5), %o3
	sethi	%gdop_hix22(.LLC3), %o5
	ld	[%l7 + %g3], %g3, %gdop(.LLC2)
	xor	%o2, %gdop_lox10(.LLC0), %o2
	xor	%o3, %gdop_lox10(.LLC5), %o3
	xor	%o5, %gdop_lox10(.LLC3), %o5
	add	%sp, 120, %i5
.LLVL208:
	ld	[%l7 + %o2], %o2, %gdop(.LLC0)
	st	%g1, [%sp+104]
	mov	256, %o1
	mov	%i5, %o0
.LLVL209:
	ld	[%fp-4], %g1
	mov	%g3, %o4
	ld	[%l7 + %o3], %o3, %gdop(.LLC5)
	ld	[%l7 + %o5], %o5, %gdop(.LLC3)
	st	%g2, [%sp+92]
	st	%g3, [%sp+100]
	call	snprintf, 0
	 st	%g1, [%sp+108]
.LLVL210:
	sethi	%gdop_hix22(.LLC4), %o1
	mov	%i5, %o0
	xor	%o1, %gdop_lox10(.LLC4), %o1
	mov	78, %o2
	call	__assert, 0
	 ld	[%l7 + %o1], %o1, %gdop(.LLC4)
.LL145:
	return	%i7+8
	 nop
.LLVL211:
.LL143:
.LLBE125:
.LLBE126:
.LLBB127:
.LLBB122:
	.loc 1 78 0 discriminator 1
	add	%sp, -264, %sp
	stx	%g0, [%fp-8]
	sethi	%gdop_hix22(.LLC2), %g3
	st	%g1, [%sp+96]
	sethi	%gdop_hix22(.LLC0), %o2
	xor	%g3, %gdop_lox10(.LLC2), %g3
	ld	[%fp-8], %g1
.LLVL212:
	sethi	%gdop_hix22(.LLC1), %o3
	sethi	%gdop_hix22(.LLC3), %o5
	ld	[%l7 + %g3], %g3, %gdop(.LLC2)
	xor	%o2, %gdop_lox10(.LLC0), %o2
	xor	%o3, %gdop_lox10(.LLC1), %o3
	xor	%o5, %gdop_lox10(.LLC3), %o5
	add	%sp, 120, %i4
.LLVL213:
	ld	[%l7 + %o2], %o2, %gdop(.LLC0)
	st	%g1, [%sp+104]
	mov	256, %o1
	mov	%i4, %o0
.LLVL214:
	ld	[%fp-4], %g1
	mov	%g3, %o4
	ld	[%l7 + %o3], %o3, %gdop(.LLC1)
	ld	[%l7 + %o5], %o5, %gdop(.LLC3)
	st	%g2, [%sp+92]
	st	%g3, [%sp+100]
	call	snprintf, 0
	 st	%g1, [%sp+108]
.LLVL215:
	sethi	%gdop_hix22(.LLC4), %o1
	mov	%i4, %o0
	xor	%o1, %gdop_lox10(.LLC4), %o1
	mov	78, %o2
	call	__assert, 0
	 ld	[%l7 + %o1], %o1, %gdop(.LLC4)
	ba,pt	%xcc, .LL139
	 nop
.LLBE122:
.LLBE127:
	.cfi_endproc
.LLFE42:
	.size	atomic_dec_64, .-atomic_dec_64
	.align 4
	.align 32
	.global atomic_add_8
	.type	atomic_add_8, #function
	.proc	020
atomic_add_8:
.LLFB43:
	.loc 1 89 0 is_stmt 1
	.cfi_startproc
.LLVL216:
	save	%sp, -128, %sp
.LLCFI18:
	.cfi_def_cfa_register 30
	.cfi_window_save
	.cfi_register 15, 31
.LLBB128:
	sethi	%gdop_hix22(atomic_lock), %i5
.LLBE128:
	sethi	%hi(_GLOBAL_OFFSET_TABLE_-4), %l7
	call	__sparc_get_pc_thunk.l7
	 add	%l7, %lo(_GLOBAL_OFFSET_TABLE_+4), %l7
.LLBB130:
	.loc 1 89 0
	xor	%i5, %gdop_lox10(atomic_lock), %i5
	ld	[%l7 + %i5], %i5, %gdop(atomic_lock)
	call	pthread_mutex_lock, 0
	 mov	%i5, %o0
	sra	%o0, 31, %g2
.LLVL217:
	orcc	%g2, %o0, %g0
	bne,pn	%icc, .LL151
	 mov	%o0, %g1
.LLVL218:
.LL147:
.LLBE130:
	.loc 1 89 0 is_stmt 0 discriminator 2
	ldub	[%i0], %g1
.LLBB131:
	mov	%i5, %o0
.LLBE131:
	add	%i1, %g1, %i1
.LLVL219:
	stb	%i1, [%i0]
.LLBB133:
	call	pthread_mutex_unlock, 0
	 nop
	sra	%o0, 31, %g2
.LLVL220:
	orcc	%g2, %o0, %g0
	be,pt	%icc, .LL153
	 mov	%o0, %g1
.LLBB132:
	.loc 1 89 0 discriminator 3
	add	%sp, -264, %sp
	stx	%g0, [%fp-8]
	sethi	%gdop_hix22(.LLC2), %g3
	st	%g1, [%sp+96]
	sethi	%gdop_hix22(.LLC0), %o2
	xor	%g3, %gdop_lox10(.LLC2), %g3
	ld	[%fp-8], %g1
	sethi	%gdop_hix22(.LLC5), %o3
	sethi	%gdop_hix22(.LLC3), %o5
	ld	[%l7 + %g3], %g3, %gdop(.LLC2)
	xor	%o2, %gdop_lox10(.LLC0), %o2
	xor	%o3, %gdop_lox10(.LLC5), %o3
	xor	%o5, %gdop_lox10(.LLC3), %o5
	add	%sp, 120, %i5
.LLVL221:
	ld	[%l7 + %o2], %o2, %gdop(.LLC0)
	st	%g1, [%sp+104]
	mov	256, %o1
	mov	%i5, %o0
.LLVL222:
	ld	[%fp-4], %g1
	mov	%g3, %o4
	ld	[%l7 + %o3], %o3, %gdop(.LLC5)
	ld	[%l7 + %o5], %o5, %gdop(.LLC3)
	st	%g2, [%sp+92]
	st	%g3, [%sp+100]
	call	snprintf, 0
	 st	%g1, [%sp+108]
.LLVL223:
	sethi	%gdop_hix22(.LLC4), %o1
	mov	%i5, %o0
	xor	%o1, %gdop_lox10(.LLC4), %o1
	mov	89, %o2
	call	__assert, 0
	 ld	[%l7 + %o1], %o1, %gdop(.LLC4)
.LL153:
	return	%i7+8
	 nop
.LLVL224:
.LL151:
.LLBE132:
.LLBE133:
.LLBB134:
.LLBB129:
	.loc 1 89 0 discriminator 1
	add	%sp, -264, %sp
	stx	%g0, [%fp-8]
	sethi	%gdop_hix22(.LLC2), %g3
	st	%g1, [%sp+96]
	sethi	%gdop_hix22(.LLC0), %o2
	xor	%g3, %gdop_lox10(.LLC2), %g3
	ld	[%fp-8], %g1
.LLVL225:
	sethi	%gdop_hix22(.LLC1), %o3
	sethi	%gdop_hix22(.LLC3), %o5
	ld	[%l7 + %g3], %g3, %gdop(.LLC2)
	xor	%o2, %gdop_lox10(.LLC0), %o2
	xor	%o3, %gdop_lox10(.LLC1), %o3
	xor	%o5, %gdop_lox10(.LLC3), %o5
	add	%sp, 120, %i4
.LLVL226:
	ld	[%l7 + %o2], %o2, %gdop(.LLC0)
	st	%g1, [%sp+104]
	mov	256, %o1
	mov	%i4, %o0
.LLVL227:
	ld	[%fp-4], %g1
	mov	%g3, %o4
	ld	[%l7 + %o3], %o3, %gdop(.LLC1)
	ld	[%l7 + %o5], %o5, %gdop(.LLC3)
	st	%g2, [%sp+92]
	st	%g3, [%sp+100]
	call	snprintf, 0
	 st	%g1, [%sp+108]
.LLVL228:
	sethi	%gdop_hix22(.LLC4), %o1
	mov	%i4, %o0
	xor	%o1, %gdop_lox10(.LLC4), %o1
	mov	89, %o2
	call	__assert, 0
	 ld	[%l7 + %o1], %o1, %gdop(.LLC4)
	ba,pt	%xcc, .LL147
	 nop
.LLBE129:
.LLBE134:
	.cfi_endproc
.LLFE43:
	.size	atomic_add_8, .-atomic_add_8
	.align 4
	.align 32
	.global atomic_add_char
	.type	atomic_add_char, #function
	.proc	020
atomic_add_char:
.LLFB44:
	.loc 1 90 0 is_stmt 1
	.cfi_startproc
.LLVL229:
	save	%sp, -128, %sp
.LLCFI19:
	.cfi_def_cfa_register 30
	.cfi_window_save
	.cfi_register 15, 31
.LLBB135:
	sethi	%gdop_hix22(atomic_lock), %i5
.LLBE135:
	sethi	%hi(_GLOBAL_OFFSET_TABLE_-4), %l7
	call	__sparc_get_pc_thunk.l7
	 add	%l7, %lo(_GLOBAL_OFFSET_TABLE_+4), %l7
.LLBB137:
	.loc 1 90 0
	xor	%i5, %gdop_lox10(atomic_lock), %i5
	ld	[%l7 + %i5], %i5, %gdop(atomic_lock)
	call	pthread_mutex_lock, 0
	 mov	%i5, %o0
	sra	%o0, 31, %g2
.LLVL230:
	orcc	%g2, %o0, %g0
	bne,pn	%icc, .LL159
	 mov	%o0, %g1
.LLVL231:
.LL155:
.LLBE137:
	.loc 1 90 0 is_stmt 0 discriminator 2
	ldub	[%i0], %g1
.LLBB138:
	mov	%i5, %o0
.LLBE138:
	add	%i1, %g1, %i1
.LLVL232:
	stb	%i1, [%i0]
.LLBB140:
	call	pthread_mutex_unlock, 0
	 nop
	sra	%o0, 31, %g2
.LLVL233:
	orcc	%g2, %o0, %g0
	be,pt	%icc, .LL161
	 mov	%o0, %g1
.LLBB139:
	.loc 1 90 0 discriminator 3
	add	%sp, -264, %sp
	stx	%g0, [%fp-8]
	sethi	%gdop_hix22(.LLC2), %g3
	st	%g1, [%sp+96]
	sethi	%gdop_hix22(.LLC0), %o2
	xor	%g3, %gdop_lox10(.LLC2), %g3
	ld	[%fp-8], %g1
	sethi	%gdop_hix22(.LLC5), %o3
	sethi	%gdop_hix22(.LLC3), %o5
	ld	[%l7 + %g3], %g3, %gdop(.LLC2)
	xor	%o2, %gdop_lox10(.LLC0), %o2
	xor	%o3, %gdop_lox10(.LLC5), %o3
	xor	%o5, %gdop_lox10(.LLC3), %o5
	add	%sp, 120, %i5
.LLVL234:
	ld	[%l7 + %o2], %o2, %gdop(.LLC0)
	st	%g1, [%sp+104]
	mov	256, %o1
	mov	%i5, %o0
.LLVL235:
	ld	[%fp-4], %g1
	mov	%g3, %o4
	ld	[%l7 + %o3], %o3, %gdop(.LLC5)
	ld	[%l7 + %o5], %o5, %gdop(.LLC3)
	st	%g2, [%sp+92]
	st	%g3, [%sp+100]
	call	snprintf, 0
	 st	%g1, [%sp+108]
.LLVL236:
	sethi	%gdop_hix22(.LLC4), %o1
	mov	%i5, %o0
	xor	%o1, %gdop_lox10(.LLC4), %o1
	mov	90, %o2
	call	__assert, 0
	 ld	[%l7 + %o1], %o1, %gdop(.LLC4)
.LL161:
	return	%i7+8
	 nop
.LLVL237:
.LL159:
.LLBE139:
.LLBE140:
.LLBB141:
.LLBB136:
	.loc 1 90 0 discriminator 1
	add	%sp, -264, %sp
	stx	%g0, [%fp-8]
	sethi	%gdop_hix22(.LLC2), %g3
	st	%g1, [%sp+96]
	sethi	%gdop_hix22(.LLC0), %o2
	xor	%g3, %gdop_lox10(.LLC2), %g3
	ld	[%fp-8], %g1
.LLVL238:
	sethi	%gdop_hix22(.LLC1), %o3
	sethi	%gdop_hix22(.LLC3), %o5
	ld	[%l7 + %g3], %g3, %gdop(.LLC2)
	xor	%o2, %gdop_lox10(.LLC0), %o2
	xor	%o3, %gdop_lox10(.LLC1), %o3
	xor	%o5, %gdop_lox10(.LLC3), %o5
	add	%sp, 120, %i4
.LLVL239:
	ld	[%l7 + %o2], %o2, %gdop(.LLC0)
	st	%g1, [%sp+104]
	mov	256, %o1
	mov	%i4, %o0
.LLVL240:
	ld	[%fp-4], %g1
	mov	%g3, %o4
	ld	[%l7 + %o3], %o3, %gdop(.LLC1)
	ld	[%l7 + %o5], %o5, %gdop(.LLC3)
	st	%g2, [%sp+92]
	st	%g3, [%sp+100]
	call	snprintf, 0
	 st	%g1, [%sp+108]
.LLVL241:
	sethi	%gdop_hix22(.LLC4), %o1
	mov	%i4, %o0
	xor	%o1, %gdop_lox10(.LLC4), %o1
	mov	90, %o2
	call	__assert, 0
	 ld	[%l7 + %o1], %o1, %gdop(.LLC4)
	ba,pt	%xcc, .LL155
	 nop
.LLBE136:
.LLBE141:
	.cfi_endproc
.LLFE44:
	.size	atomic_add_char, .-atomic_add_char
	.align 4
	.align 32
	.global atomic_add_16
	.type	atomic_add_16, #function
	.proc	020
atomic_add_16:
.LLFB45:
	.loc 1 91 0 is_stmt 1
	.cfi_startproc
.LLVL242:
	save	%sp, -128, %sp
.LLCFI20:
	.cfi_def_cfa_register 30
	.cfi_window_save
	.cfi_register 15, 31
.LLBB142:
	sethi	%gdop_hix22(atomic_lock), %i5
.LLBE142:
	sethi	%hi(_GLOBAL_OFFSET_TABLE_-4), %l7
	call	__sparc_get_pc_thunk.l7
	 add	%l7, %lo(_GLOBAL_OFFSET_TABLE_+4), %l7
.LLBB144:
	.loc 1 91 0
	xor	%i5, %gdop_lox10(atomic_lock), %i5
	ld	[%l7 + %i5], %i5, %gdop(atomic_lock)
	call	pthread_mutex_lock, 0
	 mov	%i5, %o0
	sra	%o0, 31, %g2
.LLVL243:
	orcc	%g2, %o0, %g0
	bne,pn	%icc, .LL167
	 mov	%o0, %g1
.LLVL244:
.LL163:
.LLBE144:
	.loc 1 91 0 is_stmt 0 discriminator 2
	lduh	[%i0], %g1
.LLBB145:
	mov	%i5, %o0
.LLBE145:
	add	%i1, %g1, %i1
.LLVL245:
	sth	%i1, [%i0]
.LLBB147:
	call	pthread_mutex_unlock, 0
	 nop
	sra	%o0, 31, %g2
.LLVL246:
	orcc	%g2, %o0, %g0
	be,pt	%icc, .LL169
	 mov	%o0, %g1
.LLBB146:
	.loc 1 91 0 discriminator 3
	add	%sp, -264, %sp
	stx	%g0, [%fp-8]
	sethi	%gdop_hix22(.LLC2), %g3
	st	%g1, [%sp+96]
	sethi	%gdop_hix22(.LLC0), %o2
	xor	%g3, %gdop_lox10(.LLC2), %g3
	ld	[%fp-8], %g1
	sethi	%gdop_hix22(.LLC5), %o3
	sethi	%gdop_hix22(.LLC3), %o5
	ld	[%l7 + %g3], %g3, %gdop(.LLC2)
	xor	%o2, %gdop_lox10(.LLC0), %o2
	xor	%o3, %gdop_lox10(.LLC5), %o3
	xor	%o5, %gdop_lox10(.LLC3), %o5
	add	%sp, 120, %i5
.LLVL247:
	ld	[%l7 + %o2], %o2, %gdop(.LLC0)
	st	%g1, [%sp+104]
	mov	256, %o1
	mov	%i5, %o0
.LLVL248:
	ld	[%fp-4], %g1
	mov	%g3, %o4
	ld	[%l7 + %o3], %o3, %gdop(.LLC5)
	ld	[%l7 + %o5], %o5, %gdop(.LLC3)
	st	%g2, [%sp+92]
	st	%g3, [%sp+100]
	call	snprintf, 0
	 st	%g1, [%sp+108]
.LLVL249:
	sethi	%gdop_hix22(.LLC4), %o1
	mov	%i5, %o0
	xor	%o1, %gdop_lox10(.LLC4), %o1
	mov	91, %o2
	call	__assert, 0
	 ld	[%l7 + %o1], %o1, %gdop(.LLC4)
.LL169:
	return	%i7+8
	 nop
.LLVL250:
.LL167:
.LLBE146:
.LLBE147:
.LLBB148:
.LLBB143:
	.loc 1 91 0 discriminator 1
	add	%sp, -264, %sp
	stx	%g0, [%fp-8]
	sethi	%gdop_hix22(.LLC2), %g3
	st	%g1, [%sp+96]
	sethi	%gdop_hix22(.LLC0), %o2
	xor	%g3, %gdop_lox10(.LLC2), %g3
	ld	[%fp-8], %g1
.LLVL251:
	sethi	%gdop_hix22(.LLC1), %o3
	sethi	%gdop_hix22(.LLC3), %o5
	ld	[%l7 + %g3], %g3, %gdop(.LLC2)
	xor	%o2, %gdop_lox10(.LLC0), %o2
	xor	%o3, %gdop_lox10(.LLC1), %o3
	xor	%o5, %gdop_lox10(.LLC3), %o5
	add	%sp, 120, %i4
.LLVL252:
	ld	[%l7 + %o2], %o2, %gdop(.LLC0)
	st	%g1, [%sp+104]
	mov	256, %o1
	mov	%i4, %o0
.LLVL253:
	ld	[%fp-4], %g1
	mov	%g3, %o4
	ld	[%l7 + %o3], %o3, %gdop(.LLC1)
	ld	[%l7 + %o5], %o5, %gdop(.LLC3)
	st	%g2, [%sp+92]
	st	%g3, [%sp+100]
	call	snprintf, 0
	 st	%g1, [%sp+108]
.LLVL254:
	sethi	%gdop_hix22(.LLC4), %o1
	mov	%i4, %o0
	xor	%o1, %gdop_lox10(.LLC4), %o1
	mov	91, %o2
	call	__assert, 0
	 ld	[%l7 + %o1], %o1, %gdop(.LLC4)
	ba,pt	%xcc, .LL163
	 nop
.LLBE143:
.LLBE148:
	.cfi_endproc
.LLFE45:
	.size	atomic_add_16, .-atomic_add_16
	.align 4
	.align 32
	.global atomic_add_short
	.type	atomic_add_short, #function
	.proc	020
atomic_add_short:
.LLFB46:
	.loc 1 92 0 is_stmt 1
	.cfi_startproc
.LLVL255:
	save	%sp, -128, %sp
.LLCFI21:
	.cfi_def_cfa_register 30
	.cfi_window_save
	.cfi_register 15, 31
.LLBB149:
	sethi	%gdop_hix22(atomic_lock), %i5
.LLBE149:
	sethi	%hi(_GLOBAL_OFFSET_TABLE_-4), %l7
	call	__sparc_get_pc_thunk.l7
	 add	%l7, %lo(_GLOBAL_OFFSET_TABLE_+4), %l7
.LLBB151:
	.loc 1 92 0
	xor	%i5, %gdop_lox10(atomic_lock), %i5
	ld	[%l7 + %i5], %i5, %gdop(atomic_lock)
	call	pthread_mutex_lock, 0
	 mov	%i5, %o0
	sra	%o0, 31, %g2
.LLVL256:
	orcc	%g2, %o0, %g0
	bne,pn	%icc, .LL175
	 mov	%o0, %g1
.LLVL257:
.LL171:
.LLBE151:
	.loc 1 92 0 is_stmt 0 discriminator 2
	lduh	[%i0], %g1
.LLBB152:
	mov	%i5, %o0
.LLBE152:
	add	%i1, %g1, %i1
.LLVL258:
	sth	%i1, [%i0]
.LLBB154:
	call	pthread_mutex_unlock, 0
	 nop
	sra	%o0, 31, %g2
.LLVL259:
	orcc	%g2, %o0, %g0
	be,pt	%icc, .LL177
	 mov	%o0, %g1
.LLBB153:
	.loc 1 92 0 discriminator 3
	add	%sp, -264, %sp
	stx	%g0, [%fp-8]
	sethi	%gdop_hix22(.LLC2), %g3
	st	%g1, [%sp+96]
	sethi	%gdop_hix22(.LLC0), %o2
	xor	%g3, %gdop_lox10(.LLC2), %g3
	ld	[%fp-8], %g1
	sethi	%gdop_hix22(.LLC5), %o3
	sethi	%gdop_hix22(.LLC3), %o5
	ld	[%l7 + %g3], %g3, %gdop(.LLC2)
	xor	%o2, %gdop_lox10(.LLC0), %o2
	xor	%o3, %gdop_lox10(.LLC5), %o3
	xor	%o5, %gdop_lox10(.LLC3), %o5
	add	%sp, 120, %i5
.LLVL260:
	ld	[%l7 + %o2], %o2, %gdop(.LLC0)
	st	%g1, [%sp+104]
	mov	256, %o1
	mov	%i5, %o0
.LLVL261:
	ld	[%fp-4], %g1
	mov	%g3, %o4
	ld	[%l7 + %o3], %o3, %gdop(.LLC5)
	ld	[%l7 + %o5], %o5, %gdop(.LLC3)
	st	%g2, [%sp+92]
	st	%g3, [%sp+100]
	call	snprintf, 0
	 st	%g1, [%sp+108]
.LLVL262:
	sethi	%gdop_hix22(.LLC4), %o1
	mov	%i5, %o0
	xor	%o1, %gdop_lox10(.LLC4), %o1
	mov	92, %o2
	call	__assert, 0
	 ld	[%l7 + %o1], %o1, %gdop(.LLC4)
.LL177:
	return	%i7+8
	 nop
.LLVL263:
.LL175:
.LLBE153:
.LLBE154:
.LLBB155:
.LLBB150:
	.loc 1 92 0 discriminator 1
	add	%sp, -264, %sp
	stx	%g0, [%fp-8]
	sethi	%gdop_hix22(.LLC2), %g3
	st	%g1, [%sp+96]
	sethi	%gdop_hix22(.LLC0), %o2
	xor	%g3, %gdop_lox10(.LLC2), %g3
	ld	[%fp-8], %g1
.LLVL264:
	sethi	%gdop_hix22(.LLC1), %o3
	sethi	%gdop_hix22(.LLC3), %o5
	ld	[%l7 + %g3], %g3, %gdop(.LLC2)
	xor	%o2, %gdop_lox10(.LLC0), %o2
	xor	%o3, %gdop_lox10(.LLC1), %o3
	xor	%o5, %gdop_lox10(.LLC3), %o5
	add	%sp, 120, %i4
.LLVL265:
	ld	[%l7 + %o2], %o2, %gdop(.LLC0)
	st	%g1, [%sp+104]
	mov	256, %o1
	mov	%i4, %o0
.LLVL266:
	ld	[%fp-4], %g1
	mov	%g3, %o4
	ld	[%l7 + %o3], %o3, %gdop(.LLC1)
	ld	[%l7 + %o5], %o5, %gdop(.LLC3)
	st	%g2, [%sp+92]
	st	%g3, [%sp+100]
	call	snprintf, 0
	 st	%g1, [%sp+108]
.LLVL267:
	sethi	%gdop_hix22(.LLC4), %o1
	mov	%i4, %o0
	xor	%o1, %gdop_lox10(.LLC4), %o1
	mov	92, %o2
	call	__assert, 0
	 ld	[%l7 + %o1], %o1, %gdop(.LLC4)
	ba,pt	%xcc, .LL171
	 nop
.LLBE150:
.LLBE155:
	.cfi_endproc
.LLFE46:
	.size	atomic_add_short, .-atomic_add_short
	.align 4
	.align 32
	.global atomic_add_32
	.type	atomic_add_32, #function
	.proc	020
atomic_add_32:
.LLFB47:
	.loc 1 93 0 is_stmt 1
	.cfi_startproc
.LLVL268:
	save	%sp, -128, %sp
.LLCFI22:
	.cfi_def_cfa_register 30
	.cfi_window_save
	.cfi_register 15, 31
.LLBB156:
	sethi	%gdop_hix22(atomic_lock), %i5
.LLBE156:
	sethi	%hi(_GLOBAL_OFFSET_TABLE_-4), %l7
	call	__sparc_get_pc_thunk.l7
	 add	%l7, %lo(_GLOBAL_OFFSET_TABLE_+4), %l7
.LLBB158:
	.loc 1 93 0
	xor	%i5, %gdop_lox10(atomic_lock), %i5
	ld	[%l7 + %i5], %i5, %gdop(atomic_lock)
	call	pthread_mutex_lock, 0
	 mov	%i5, %o0
	sra	%o0, 31, %g2
.LLVL269:
	orcc	%g2, %o0, %g0
	bne,pn	%icc, .LL183
	 mov	%o0, %g1
.LLVL270:
.LL179:
.LLBE158:
	.loc 1 93 0 is_stmt 0 discriminator 2
	ld	[%i0], %g1
.LLBB159:
	mov	%i5, %o0
.LLBE159:
	add	%i1, %g1, %i1
.LLVL271:
	st	%i1, [%i0]
.LLBB161:
	call	pthread_mutex_unlock, 0
	 nop
	sra	%o0, 31, %g2
.LLVL272:
	orcc	%g2, %o0, %g0
	be,pt	%icc, .LL185
	 mov	%o0, %g1
.LLBB160:
	.loc 1 93 0 discriminator 3
	add	%sp, -264, %sp
	stx	%g0, [%fp-8]
	sethi	%gdop_hix22(.LLC2), %g3
	st	%g1, [%sp+96]
	sethi	%gdop_hix22(.LLC0), %o2
	xor	%g3, %gdop_lox10(.LLC2), %g3
	ld	[%fp-8], %g1
	sethi	%gdop_hix22(.LLC5), %o3
	sethi	%gdop_hix22(.LLC3), %o5
	ld	[%l7 + %g3], %g3, %gdop(.LLC2)
	xor	%o2, %gdop_lox10(.LLC0), %o2
	xor	%o3, %gdop_lox10(.LLC5), %o3
	xor	%o5, %gdop_lox10(.LLC3), %o5
	add	%sp, 120, %i5
.LLVL273:
	ld	[%l7 + %o2], %o2, %gdop(.LLC0)
	st	%g1, [%sp+104]
	mov	256, %o1
	mov	%i5, %o0
.LLVL274:
	ld	[%fp-4], %g1
	mov	%g3, %o4
	ld	[%l7 + %o3], %o3, %gdop(.LLC5)
	ld	[%l7 + %o5], %o5, %gdop(.LLC3)
	st	%g2, [%sp+92]
	st	%g3, [%sp+100]
	call	snprintf, 0
	 st	%g1, [%sp+108]
.LLVL275:
	sethi	%gdop_hix22(.LLC4), %o1
	mov	%i5, %o0
	xor	%o1, %gdop_lox10(.LLC4), %o1
	mov	93, %o2
	call	__assert, 0
	 ld	[%l7 + %o1], %o1, %gdop(.LLC4)
.LL185:
	return	%i7+8
	 nop
.LLVL276:
.LL183:
.LLBE160:
.LLBE161:
.LLBB162:
.LLBB157:
	.loc 1 93 0 discriminator 1
	add	%sp, -264, %sp
	stx	%g0, [%fp-8]
	sethi	%gdop_hix22(.LLC2), %g3
	st	%g1, [%sp+96]
	sethi	%gdop_hix22(.LLC0), %o2
	xor	%g3, %gdop_lox10(.LLC2), %g3
	ld	[%fp-8], %g1
.LLVL277:
	sethi	%gdop_hix22(.LLC1), %o3
	sethi	%gdop_hix22(.LLC3), %o5
	ld	[%l7 + %g3], %g3, %gdop(.LLC2)
	xor	%o2, %gdop_lox10(.LLC0), %o2
	xor	%o3, %gdop_lox10(.LLC1), %o3
	xor	%o5, %gdop_lox10(.LLC3), %o5
	add	%sp, 120, %i4
.LLVL278:
	ld	[%l7 + %o2], %o2, %gdop(.LLC0)
	st	%g1, [%sp+104]
	mov	256, %o1
	mov	%i4, %o0
.LLVL279:
	ld	[%fp-4], %g1
	mov	%g3, %o4
	ld	[%l7 + %o3], %o3, %gdop(.LLC1)
	ld	[%l7 + %o5], %o5, %gdop(.LLC3)
	st	%g2, [%sp+92]
	st	%g3, [%sp+100]
	call	snprintf, 0
	 st	%g1, [%sp+108]
.LLVL280:
	sethi	%gdop_hix22(.LLC4), %o1
	mov	%i4, %o0
	xor	%o1, %gdop_lox10(.LLC4), %o1
	mov	93, %o2
	call	__assert, 0
	 ld	[%l7 + %o1], %o1, %gdop(.LLC4)
	ba,pt	%xcc, .LL179
	 nop
.LLBE157:
.LLBE162:
	.cfi_endproc
.LLFE47:
	.size	atomic_add_32, .-atomic_add_32
	.align 4
	.align 32
	.global atomic_add_int
	.type	atomic_add_int, #function
	.proc	020
atomic_add_int:
.LLFB48:
	.loc 1 94 0 is_stmt 1
	.cfi_startproc
.LLVL281:
	save	%sp, -128, %sp
.LLCFI23:
	.cfi_def_cfa_register 30
	.cfi_window_save
	.cfi_register 15, 31
.LLBB163:
	sethi	%gdop_hix22(atomic_lock), %i5
.LLBE163:
	sethi	%hi(_GLOBAL_OFFSET_TABLE_-4), %l7
	call	__sparc_get_pc_thunk.l7
	 add	%l7, %lo(_GLOBAL_OFFSET_TABLE_+4), %l7
.LLBB165:
	.loc 1 94 0
	xor	%i5, %gdop_lox10(atomic_lock), %i5
	ld	[%l7 + %i5], %i5, %gdop(atomic_lock)
	call	pthread_mutex_lock, 0
	 mov	%i5, %o0
	sra	%o0, 31, %g2
.LLVL282:
	orcc	%g2, %o0, %g0
	bne,pn	%icc, .LL191
	 mov	%o0, %g1
.LLVL283:
.LL187:
.LLBE165:
	.loc 1 94 0 is_stmt 0 discriminator 2
	ld	[%i0], %g1
.LLBB166:
	mov	%i5, %o0
.LLBE166:
	add	%i1, %g1, %i1
.LLVL284:
	st	%i1, [%i0]
.LLBB168:
	call	pthread_mutex_unlock, 0
	 nop
	sra	%o0, 31, %g2
.LLVL285:
	orcc	%g2, %o0, %g0
	be,pt	%icc, .LL193
	 mov	%o0, %g1
.LLBB167:
	.loc 1 94 0 discriminator 3
	add	%sp, -264, %sp
	stx	%g0, [%fp-8]
	sethi	%gdop_hix22(.LLC2), %g3
	st	%g1, [%sp+96]
	sethi	%gdop_hix22(.LLC0), %o2
	xor	%g3, %gdop_lox10(.LLC2), %g3
	ld	[%fp-8], %g1
	sethi	%gdop_hix22(.LLC5), %o3
	sethi	%gdop_hix22(.LLC3), %o5
	ld	[%l7 + %g3], %g3, %gdop(.LLC2)
	xor	%o2, %gdop_lox10(.LLC0), %o2
	xor	%o3, %gdop_lox10(.LLC5), %o3
	xor	%o5, %gdop_lox10(.LLC3), %o5
	add	%sp, 120, %i5
.LLVL286:
	ld	[%l7 + %o2], %o2, %gdop(.LLC0)
	st	%g1, [%sp+104]
	mov	256, %o1
	mov	%i5, %o0
.LLVL287:
	ld	[%fp-4], %g1
	mov	%g3, %o4
	ld	[%l7 + %o3], %o3, %gdop(.LLC5)
	ld	[%l7 + %o5], %o5, %gdop(.LLC3)
	st	%g2, [%sp+92]
	st	%g3, [%sp+100]
	call	snprintf, 0
	 st	%g1, [%sp+108]
.LLVL288:
	sethi	%gdop_hix22(.LLC4), %o1
	mov	%i5, %o0
	xor	%o1, %gdop_lox10(.LLC4), %o1
	mov	94, %o2
	call	__assert, 0
	 ld	[%l7 + %o1], %o1, %gdop(.LLC4)
.LL193:
	return	%i7+8
	 nop
.LLVL289:
.LL191:
.LLBE167:
.LLBE168:
.LLBB169:
.LLBB164:
	.loc 1 94 0 discriminator 1
	add	%sp, -264, %sp
	stx	%g0, [%fp-8]
	sethi	%gdop_hix22(.LLC2), %g3
	st	%g1, [%sp+96]
	sethi	%gdop_hix22(.LLC0), %o2
	xor	%g3, %gdop_lox10(.LLC2), %g3
	ld	[%fp-8], %g1
.LLVL290:
	sethi	%gdop_hix22(.LLC1), %o3
	sethi	%gdop_hix22(.LLC3), %o5
	ld	[%l7 + %g3], %g3, %gdop(.LLC2)
	xor	%o2, %gdop_lox10(.LLC0), %o2
	xor	%o3, %gdop_lox10(.LLC1), %o3
	xor	%o5, %gdop_lox10(.LLC3), %o5
	add	%sp, 120, %i4
.LLVL291:
	ld	[%l7 + %o2], %o2, %gdop(.LLC0)
	st	%g1, [%sp+104]
	mov	256, %o1
	mov	%i4, %o0
.LLVL292:
	ld	[%fp-4], %g1
	mov	%g3, %o4
	ld	[%l7 + %o3], %o3, %gdop(.LLC1)
	ld	[%l7 + %o5], %o5, %gdop(.LLC3)
	st	%g2, [%sp+92]
	st	%g3, [%sp+100]
	call	snprintf, 0
	 st	%g1, [%sp+108]
.LLVL293:
	sethi	%gdop_hix22(.LLC4), %o1
	mov	%i4, %o0
	xor	%o1, %gdop_lox10(.LLC4), %o1
	mov	94, %o2
	call	__assert, 0
	 ld	[%l7 + %o1], %o1, %gdop(.LLC4)
	ba,pt	%xcc, .LL187
	 nop
.LLBE164:
.LLBE169:
	.cfi_endproc
.LLFE48:
	.size	atomic_add_int, .-atomic_add_int
	.align 4
	.align 32
	.global atomic_add_long
	.type	atomic_add_long, #function
	.proc	020
atomic_add_long:
.LLFB49:
	.loc 1 95 0 is_stmt 1
	.cfi_startproc
.LLVL294:
	save	%sp, -128, %sp
.LLCFI24:
	.cfi_def_cfa_register 30
	.cfi_window_save
	.cfi_register 15, 31
.LLBB170:
	sethi	%gdop_hix22(atomic_lock), %i5
.LLBE170:
	sethi	%hi(_GLOBAL_OFFSET_TABLE_-4), %l7
	call	__sparc_get_pc_thunk.l7
	 add	%l7, %lo(_GLOBAL_OFFSET_TABLE_+4), %l7
.LLBB172:
	.loc 1 95 0
	xor	%i5, %gdop_lox10(atomic_lock), %i5
	ld	[%l7 + %i5], %i5, %gdop(atomic_lock)
	call	pthread_mutex_lock, 0
	 mov	%i5, %o0
	sra	%o0, 31, %g2
.LLVL295:
	orcc	%g2, %o0, %g0
	bne,pn	%icc, .LL199
	 mov	%o0, %g1
.LLVL296:
.LL195:
.LLBE172:
	.loc 1 95 0 is_stmt 0 discriminator 2
	ld	[%i0], %g1
.LLBB173:
	mov	%i5, %o0
.LLBE173:
	add	%i1, %g1, %i1
.LLVL297:
	st	%i1, [%i0]
.LLBB175:
	call	pthread_mutex_unlock, 0
	 nop
	sra	%o0, 31, %g2
.LLVL298:
	orcc	%g2, %o0, %g0
	be,pt	%icc, .LL201
	 mov	%o0, %g1
.LLBB174:
	.loc 1 95 0 discriminator 3
	add	%sp, -264, %sp
	stx	%g0, [%fp-8]
	sethi	%gdop_hix22(.LLC2), %g3
	st	%g1, [%sp+96]
	sethi	%gdop_hix22(.LLC0), %o2
	xor	%g3, %gdop_lox10(.LLC2), %g3
	ld	[%fp-8], %g1
	sethi	%gdop_hix22(.LLC5), %o3
	sethi	%gdop_hix22(.LLC3), %o5
	ld	[%l7 + %g3], %g3, %gdop(.LLC2)
	xor	%o2, %gdop_lox10(.LLC0), %o2
	xor	%o3, %gdop_lox10(.LLC5), %o3
	xor	%o5, %gdop_lox10(.LLC3), %o5
	add	%sp, 120, %i5
.LLVL299:
	ld	[%l7 + %o2], %o2, %gdop(.LLC0)
	st	%g1, [%sp+104]
	mov	256, %o1
	mov	%i5, %o0
.LLVL300:
	ld	[%fp-4], %g1
	mov	%g3, %o4
	ld	[%l7 + %o3], %o3, %gdop(.LLC5)
	ld	[%l7 + %o5], %o5, %gdop(.LLC3)
	st	%g2, [%sp+92]
	st	%g3, [%sp+100]
	call	snprintf, 0
	 st	%g1, [%sp+108]
.LLVL301:
	sethi	%gdop_hix22(.LLC4), %o1
	mov	%i5, %o0
	xor	%o1, %gdop_lox10(.LLC4), %o1
	mov	95, %o2
	call	__assert, 0
	 ld	[%l7 + %o1], %o1, %gdop(.LLC4)
.LL201:
	return	%i7+8
	 nop
.LLVL302:
.LL199:
.LLBE174:
.LLBE175:
.LLBB176:
.LLBB171:
	.loc 1 95 0 discriminator 1
	add	%sp, -264, %sp
	stx	%g0, [%fp-8]
	sethi	%gdop_hix22(.LLC2), %g3
	st	%g1, [%sp+96]
	sethi	%gdop_hix22(.LLC0), %o2
	xor	%g3, %gdop_lox10(.LLC2), %g3
	ld	[%fp-8], %g1
.LLVL303:
	sethi	%gdop_hix22(.LLC1), %o3
	sethi	%gdop_hix22(.LLC3), %o5
	ld	[%l7 + %g3], %g3, %gdop(.LLC2)
	xor	%o2, %gdop_lox10(.LLC0), %o2
	xor	%o3, %gdop_lox10(.LLC1), %o3
	xor	%o5, %gdop_lox10(.LLC3), %o5
	add	%sp, 120, %i4
.LLVL304:
	ld	[%l7 + %o2], %o2, %gdop(.LLC0)
	st	%g1, [%sp+104]
	mov	256, %o1
	mov	%i4, %o0
.LLVL305:
	ld	[%fp-4], %g1
	mov	%g3, %o4
	ld	[%l7 + %o3], %o3, %gdop(.LLC1)
	ld	[%l7 + %o5], %o5, %gdop(.LLC3)
	st	%g2, [%sp+92]
	st	%g3, [%sp+100]
	call	snprintf, 0
	 st	%g1, [%sp+108]
.LLVL306:
	sethi	%gdop_hix22(.LLC4), %o1
	mov	%i4, %o0
	xor	%o1, %gdop_lox10(.LLC4), %o1
	mov	95, %o2
	call	__assert, 0
	 ld	[%l7 + %o1], %o1, %gdop(.LLC4)
	ba,pt	%xcc, .LL195
	 nop
.LLBE171:
.LLBE176:
	.cfi_endproc
.LLFE49:
	.size	atomic_add_long, .-atomic_add_long
	.align 4
	.align 32
	.global atomic_add_64
	.type	atomic_add_64, #function
	.proc	020
atomic_add_64:
.LLFB50:
	.loc 1 96 0 is_stmt 1
	.cfi_startproc
.LLVL307:
	save	%sp, -128, %sp
.LLCFI25:
	.cfi_def_cfa_register 30
	.cfi_window_save
	.cfi_register 15, 31
.LLBB177:
	sethi	%gdop_hix22(atomic_lock), %i3
.LLBE177:
	mov	%i1, %i4
	sethi	%hi(_GLOBAL_OFFSET_TABLE_-4), %l7
	call	__sparc_get_pc_thunk.l7
	 add	%l7, %lo(_GLOBAL_OFFSET_TABLE_+4), %l7
.LLBB179:
	.loc 1 96 0
	xor	%i3, %gdop_lox10(atomic_lock), %i3
.LLBE179:
	mov	%i2, %i5
.LLBB180:
	ld	[%l7 + %i3], %i3, %gdop(atomic_lock)
	call	pthread_mutex_lock, 0
	 mov	%i3, %o0
	sra	%o0, 31, %g2
.LLVL308:
	orcc	%g2, %o0, %g0
	bne,pn	%icc, .LL207
	 mov	%o0, %g1
.LLVL309:
.LL203:
.LLBE180:
	.loc 1 96 0 is_stmt 0 discriminator 2
	ldd	[%i0], %g2
.LLBB181:
	mov	%i3, %o0
.LLBE181:
	addcc	%i5, %g3, %i5
	addx	%i4, %g2, %i4
	std	%i4, [%i0]
.LLBB183:
	call	pthread_mutex_unlock, 0
	 nop
	sra	%o0, 31, %g2
.LLVL310:
	orcc	%g2, %o0, %g0
	be,pt	%icc, .LL209
	 mov	%o0, %g1
.LLBB182:
	.loc 1 96 0 discriminator 3
	add	%sp, -264, %sp
	stx	%g0, [%fp-8]
	sethi	%gdop_hix22(.LLC2), %g3
	st	%g1, [%sp+96]
	sethi	%gdop_hix22(.LLC0), %o2
	xor	%g3, %gdop_lox10(.LLC2), %g3
	ld	[%fp-8], %g1
	sethi	%gdop_hix22(.LLC5), %o3
	sethi	%gdop_hix22(.LLC3), %o5
	ld	[%l7 + %g3], %g3, %gdop(.LLC2)
	xor	%o2, %gdop_lox10(.LLC0), %o2
	xor	%o3, %gdop_lox10(.LLC5), %o3
	xor	%o5, %gdop_lox10(.LLC3), %o5
	add	%sp, 120, %i4
.LLVL311:
	ld	[%l7 + %o2], %o2, %gdop(.LLC0)
	st	%g1, [%sp+104]
	mov	256, %o1
	mov	%i4, %o0
.LLVL312:
	ld	[%fp-4], %g1
	mov	%g3, %o4
	ld	[%l7 + %o3], %o3, %gdop(.LLC5)
	ld	[%l7 + %o5], %o5, %gdop(.LLC3)
	st	%g2, [%sp+92]
	st	%g3, [%sp+100]
	call	snprintf, 0
	 st	%g1, [%sp+108]
.LLVL313:
	sethi	%gdop_hix22(.LLC4), %o1
	mov	%i4, %o0
	xor	%o1, %gdop_lox10(.LLC4), %o1
	mov	96, %o2
	call	__assert, 0
	 ld	[%l7 + %o1], %o1, %gdop(.LLC4)
.LL209:
	return	%i7+8
	 nop
.LLVL314:
.LL207:
.LLBE182:
.LLBE183:
.LLBB184:
.LLBB178:
	.loc 1 96 0 discriminator 1
	add	%sp, -264, %sp
	stx	%g0, [%fp-8]
	sethi	%gdop_hix22(.LLC2), %g3
	st	%g1, [%sp+96]
	sethi	%gdop_hix22(.LLC0), %o2
	xor	%g3, %gdop_lox10(.LLC2), %g3
	ld	[%fp-8], %g1
.LLVL315:
	sethi	%gdop_hix22(.LLC1), %o3
	sethi	%gdop_hix22(.LLC3), %o5
	ld	[%l7 + %g3], %g3, %gdop(.LLC2)
	xor	%o2, %gdop_lox10(.LLC0), %o2
	xor	%o3, %gdop_lox10(.LLC1), %o3
	xor	%o5, %gdop_lox10(.LLC3), %o5
	add	%sp, 120, %i2
.LLVL316:
	ld	[%l7 + %o2], %o2, %gdop(.LLC0)
	st	%g1, [%sp+104]
	mov	256, %o1
	mov	%i2, %o0
.LLVL317:
	ld	[%fp-4], %g1
	mov	%g3, %o4
	ld	[%l7 + %o3], %o3, %gdop(.LLC1)
	ld	[%l7 + %o5], %o5, %gdop(.LLC3)
	st	%g2, [%sp+92]
	st	%g3, [%sp+100]
	call	snprintf, 0
	 st	%g1, [%sp+108]
.LLVL318:
	sethi	%gdop_hix22(.LLC4), %o1
	mov	%i2, %o0
	xor	%o1, %gdop_lox10(.LLC4), %o1
	mov	96, %o2
	call	__assert, 0
	 ld	[%l7 + %o1], %o1, %gdop(.LLC4)
	ba,pt	%xcc, .LL203
	 nop
.LLBE178:
.LLBE184:
	.cfi_endproc
.LLFE50:
	.size	atomic_add_64, .-atomic_add_64
	.align 4
	.align 32
	.global atomic_add_ptr
	.type	atomic_add_ptr, #function
	.proc	020
atomic_add_ptr:
.LLFB51:
	.loc 1 99 0 is_stmt 1
	.cfi_startproc
.LLVL319:
	save	%sp, -128, %sp
.LLCFI26:
	.cfi_def_cfa_register 30
	.cfi_window_save
	.cfi_register 15, 31
.LLBB185:
	.loc 1 100 0
	sethi	%gdop_hix22(atomic_lock), %i5
.LLBE185:
	.loc 1 99 0
	sethi	%hi(_GLOBAL_OFFSET_TABLE_-4), %l7
	call	__sparc_get_pc_thunk.l7
	 add	%l7, %lo(_GLOBAL_OFFSET_TABLE_+4), %l7
.LLBB187:
	.loc 1 100 0
	xor	%i5, %gdop_lox10(atomic_lock), %i5
	ld	[%l7 + %i5], %i5, %gdop(atomic_lock)
	call	pthread_mutex_lock, 0
	 mov	%i5, %o0
	sra	%o0, 31, %g2
.LLVL320:
	orcc	%g2, %o0, %g0
	bne,pn	%icc, .LL215
	 mov	%o0, %g1
.LLVL321:
.LLBE187:
	.loc 1 101 0
	ld	[%i0], %g1
.LL217:
.LLBB188:
	.loc 1 102 0
	mov	%i5, %o0
.LLBE188:
	.loc 1 101 0
	add	%g1, %i1, %i1
.LLVL322:
.LLBB190:
	.loc 1 102 0
	call	pthread_mutex_unlock, 0
	 st	%i1, [%i0]
	sra	%o0, 31, %g2
.LLVL323:
	orcc	%g2, %o0, %g0
	be,pt	%icc, .LL218
	 mov	%o0, %g1
.LLBB189:
	.loc 1 102 0 is_stmt 0 discriminator 1
	add	%sp, -264, %sp
	stx	%g0, [%fp-8]
	sethi	%gdop_hix22(.LLC2), %g3
	st	%g1, [%sp+96]
	sethi	%gdop_hix22(.LLC0), %o2
	xor	%g3, %gdop_lox10(.LLC2), %g3
	ld	[%fp-8], %g1
	sethi	%gdop_hix22(.LLC5), %o3
	sethi	%gdop_hix22(.LLC3), %o5
	ld	[%l7 + %g3], %g3, %gdop(.LLC2)
	xor	%o2, %gdop_lox10(.LLC0), %o2
	xor	%o3, %gdop_lox10(.LLC5), %o3
	xor	%o5, %gdop_lox10(.LLC3), %o5
	add	%sp, 120, %i5
.LLVL324:
	ld	[%l7 + %o2], %o2, %gdop(.LLC0)
	st	%g1, [%sp+104]
	mov	256, %o1
	mov	%i5, %o0
.LLVL325:
	ld	[%fp-4], %g1
	mov	%g3, %o4
	ld	[%l7 + %o3], %o3, %gdop(.LLC5)
	ld	[%l7 + %o5], %o5, %gdop(.LLC3)
	st	%g2, [%sp+92]
	st	%g3, [%sp+100]
	call	snprintf, 0
	 st	%g1, [%sp+108]
.LLVL326:
	sethi	%gdop_hix22(.LLC4), %o1
	mov	%i5, %o0
	xor	%o1, %gdop_lox10(.LLC4), %o1
	mov	102, %o2
	call	__assert, 0
	 ld	[%l7 + %o1], %o1, %gdop(.LLC4)
.LL218:
	return	%i7+8
	 nop
.LLVL327:
.LL215:
.LLBE189:
.LLBE190:
.LLBB191:
.LLBB186:
	.loc 1 100 0 is_stmt 1 discriminator 1
	add	%sp, -264, %sp
	stx	%g0, [%fp-8]
	sethi	%gdop_hix22(.LLC2), %g3
	st	%g1, [%sp+96]
	sethi	%gdop_hix22(.LLC0), %o2
	xor	%g3, %gdop_lox10(.LLC2), %g3
	ld	[%fp-8], %g1
.LLVL328:
	sethi	%gdop_hix22(.LLC1), %o3
	sethi	%gdop_hix22(.LLC3), %o5
	ld	[%l7 + %g3], %g3, %gdop(.LLC2)
	xor	%o2, %gdop_lox10(.LLC0), %o2
	xor	%o3, %gdop_lox10(.LLC1), %o3
	xor	%o5, %gdop_lox10(.LLC3), %o5
	add	%sp, 120, %i4
.LLVL329:
	ld	[%l7 + %o2], %o2, %gdop(.LLC0)
	st	%g1, [%sp+104]
	mov	256, %o1
	mov	%i4, %o0
.LLVL330:
	ld	[%fp-4], %g1
	mov	%g3, %o4
	ld	[%l7 + %o3], %o3, %gdop(.LLC1)
	ld	[%l7 + %o5], %o5, %gdop(.LLC3)
	st	%g2, [%sp+92]
	st	%g3, [%sp+100]
	call	snprintf, 0
	 st	%g1, [%sp+108]
.LLVL331:
	sethi	%gdop_hix22(.LLC4), %o1
	mov	%i4, %o0
	xor	%o1, %gdop_lox10(.LLC4), %o1
	mov	100, %o2
	call	__assert, 0
	 ld	[%l7 + %o1], %o1, %gdop(.LLC4)
	.loc 1 101 0 discriminator 1
	ba,pt	%xcc, .LL217
	 ld	[%i0], %g1
.LLBE186:
.LLBE191:
	.cfi_endproc
.LLFE51:
	.size	atomic_add_ptr, .-atomic_add_ptr
	.align 4
	.align 32
	.global atomic_sub_8
	.type	atomic_sub_8, #function
	.proc	020
atomic_sub_8:
.LLFB52:
	.loc 1 114 0
	.cfi_startproc
.LLVL332:
	save	%sp, -128, %sp
.LLCFI27:
	.cfi_def_cfa_register 30
	.cfi_window_save
	.cfi_register 15, 31
.LLBB192:
	sethi	%gdop_hix22(atomic_lock), %i5
.LLBE192:
	sethi	%hi(_GLOBAL_OFFSET_TABLE_-4), %l7
	call	__sparc_get_pc_thunk.l7
	 add	%l7, %lo(_GLOBAL_OFFSET_TABLE_+4), %l7
.LLBB194:
	.loc 1 114 0
	xor	%i5, %gdop_lox10(atomic_lock), %i5
	ld	[%l7 + %i5], %i5, %gdop(atomic_lock)
	call	pthread_mutex_lock, 0
	 mov	%i5, %o0
	sra	%o0, 31, %g2
.LLVL333:
	orcc	%g2, %o0, %g0
	bne,pn	%icc, .LL224
	 mov	%o0, %g1
.LLVL334:
.LL220:
.LLBE194:
	.loc 1 114 0 is_stmt 0 discriminator 2
	ldub	[%i0], %g1
.LLBB195:
	mov	%i5, %o0
.LLBE195:
	sub	%g1, %i1, %i1
.LLVL335:
	stb	%i1, [%i0]
.LLBB197:
	call	pthread_mutex_unlock, 0
	 nop
	sra	%o0, 31, %g2
.LLVL336:
	orcc	%g2, %o0, %g0
	be,pt	%icc, .LL226
	 mov	%o0, %g1
.LLBB196:
	.loc 1 114 0 discriminator 3
	add	%sp, -264, %sp
	stx	%g0, [%fp-8]
	sethi	%gdop_hix22(.LLC2), %g3
	st	%g1, [%sp+96]
	sethi	%gdop_hix22(.LLC0), %o2
	xor	%g3, %gdop_lox10(.LLC2), %g3
	ld	[%fp-8], %g1
	sethi	%gdop_hix22(.LLC5), %o3
	sethi	%gdop_hix22(.LLC3), %o5
	ld	[%l7 + %g3], %g3, %gdop(.LLC2)
	xor	%o2, %gdop_lox10(.LLC0), %o2
	xor	%o3, %gdop_lox10(.LLC5), %o3
	xor	%o5, %gdop_lox10(.LLC3), %o5
	add	%sp, 120, %i5
.LLVL337:
	ld	[%l7 + %o2], %o2, %gdop(.LLC0)
	st	%g1, [%sp+104]
	mov	256, %o1
	mov	%i5, %o0
.LLVL338:
	ld	[%fp-4], %g1
	mov	%g3, %o4
	ld	[%l7 + %o3], %o3, %gdop(.LLC5)
	ld	[%l7 + %o5], %o5, %gdop(.LLC3)
	st	%g2, [%sp+92]
	st	%g3, [%sp+100]
	call	snprintf, 0
	 st	%g1, [%sp+108]
.LLVL339:
	sethi	%gdop_hix22(.LLC4), %o1
	mov	%i5, %o0
	xor	%o1, %gdop_lox10(.LLC4), %o1
	mov	114, %o2
	call	__assert, 0
	 ld	[%l7 + %o1], %o1, %gdop(.LLC4)
.LL226:
	return	%i7+8
	 nop
.LLVL340:
.LL224:
.LLBE196:
.LLBE197:
.LLBB198:
.LLBB193:
	.loc 1 114 0 discriminator 1
	add	%sp, -264, %sp
	stx	%g0, [%fp-8]
	sethi	%gdop_hix22(.LLC2), %g3
	st	%g1, [%sp+96]
	sethi	%gdop_hix22(.LLC0), %o2
	xor	%g3, %gdop_lox10(.LLC2), %g3
	ld	[%fp-8], %g1
.LLVL341:
	sethi	%gdop_hix22(.LLC1), %o3
	sethi	%gdop_hix22(.LLC3), %o5
	ld	[%l7 + %g3], %g3, %gdop(.LLC2)
	xor	%o2, %gdop_lox10(.LLC0), %o2
	xor	%o3, %gdop_lox10(.LLC1), %o3
	xor	%o5, %gdop_lox10(.LLC3), %o5
	add	%sp, 120, %i4
.LLVL342:
	ld	[%l7 + %o2], %o2, %gdop(.LLC0)
	st	%g1, [%sp+104]
	mov	256, %o1
	mov	%i4, %o0
.LLVL343:
	ld	[%fp-4], %g1
	mov	%g3, %o4
	ld	[%l7 + %o3], %o3, %gdop(.LLC1)
	ld	[%l7 + %o5], %o5, %gdop(.LLC3)
	st	%g2, [%sp+92]
	st	%g3, [%sp+100]
	call	snprintf, 0
	 st	%g1, [%sp+108]
.LLVL344:
	sethi	%gdop_hix22(.LLC4), %o1
	mov	%i4, %o0
	xor	%o1, %gdop_lox10(.LLC4), %o1
	mov	114, %o2
	call	__assert, 0
	 ld	[%l7 + %o1], %o1, %gdop(.LLC4)
	ba,pt	%xcc, .LL220
	 nop
.LLBE193:
.LLBE198:
	.cfi_endproc
.LLFE52:
	.size	atomic_sub_8, .-atomic_sub_8
	.align 4
	.align 32
	.global atomic_sub_char
	.type	atomic_sub_char, #function
	.proc	020
atomic_sub_char:
.LLFB53:
	.loc 1 115 0 is_stmt 1
	.cfi_startproc
.LLVL345:
	save	%sp, -128, %sp
.LLCFI28:
	.cfi_def_cfa_register 30
	.cfi_window_save
	.cfi_register 15, 31
.LLBB199:
	sethi	%gdop_hix22(atomic_lock), %i5
.LLBE199:
	sethi	%hi(_GLOBAL_OFFSET_TABLE_-4), %l7
	call	__sparc_get_pc_thunk.l7
	 add	%l7, %lo(_GLOBAL_OFFSET_TABLE_+4), %l7
.LLBB201:
	.loc 1 115 0
	xor	%i5, %gdop_lox10(atomic_lock), %i5
	ld	[%l7 + %i5], %i5, %gdop(atomic_lock)
	call	pthread_mutex_lock, 0
	 mov	%i5, %o0
	sra	%o0, 31, %g2
.LLVL346:
	orcc	%g2, %o0, %g0
	bne,pn	%icc, .LL232
	 mov	%o0, %g1
.LLVL347:
.LL228:
.LLBE201:
	.loc 1 115 0 is_stmt 0 discriminator 2
	ldub	[%i0], %g1
.LLBB202:
	mov	%i5, %o0
.LLBE202:
	sub	%g1, %i1, %i1
.LLVL348:
	stb	%i1, [%i0]
.LLBB204:
	call	pthread_mutex_unlock, 0
	 nop
	sra	%o0, 31, %g2
.LLVL349:
	orcc	%g2, %o0, %g0
	be,pt	%icc, .LL234
	 mov	%o0, %g1
.LLBB203:
	.loc 1 115 0 discriminator 3
	add	%sp, -264, %sp
	stx	%g0, [%fp-8]
	sethi	%gdop_hix22(.LLC2), %g3
	st	%g1, [%sp+96]
	sethi	%gdop_hix22(.LLC0), %o2
	xor	%g3, %gdop_lox10(.LLC2), %g3
	ld	[%fp-8], %g1
	sethi	%gdop_hix22(.LLC5), %o3
	sethi	%gdop_hix22(.LLC3), %o5
	ld	[%l7 + %g3], %g3, %gdop(.LLC2)
	xor	%o2, %gdop_lox10(.LLC0), %o2
	xor	%o3, %gdop_lox10(.LLC5), %o3
	xor	%o5, %gdop_lox10(.LLC3), %o5
	add	%sp, 120, %i5
.LLVL350:
	ld	[%l7 + %o2], %o2, %gdop(.LLC0)
	st	%g1, [%sp+104]
	mov	256, %o1
	mov	%i5, %o0
.LLVL351:
	ld	[%fp-4], %g1
	mov	%g3, %o4
	ld	[%l7 + %o3], %o3, %gdop(.LLC5)
	ld	[%l7 + %o5], %o5, %gdop(.LLC3)
	st	%g2, [%sp+92]
	st	%g3, [%sp+100]
	call	snprintf, 0
	 st	%g1, [%sp+108]
.LLVL352:
	sethi	%gdop_hix22(.LLC4), %o1
	mov	%i5, %o0
	xor	%o1, %gdop_lox10(.LLC4), %o1
	mov	115, %o2
	call	__assert, 0
	 ld	[%l7 + %o1], %o1, %gdop(.LLC4)
.LL234:
	return	%i7+8
	 nop
.LLVL353:
.LL232:
.LLBE203:
.LLBE204:
.LLBB205:
.LLBB200:
	.loc 1 115 0 discriminator 1
	add	%sp, -264, %sp
	stx	%g0, [%fp-8]
	sethi	%gdop_hix22(.LLC2), %g3
	st	%g1, [%sp+96]
	sethi	%gdop_hix22(.LLC0), %o2
	xor	%g3, %gdop_lox10(.LLC2), %g3
	ld	[%fp-8], %g1
.LLVL354:
	sethi	%gdop_hix22(.LLC1), %o3
	sethi	%gdop_hix22(.LLC3), %o5
	ld	[%l7 + %g3], %g3, %gdop(.LLC2)
	xor	%o2, %gdop_lox10(.LLC0), %o2
	xor	%o3, %gdop_lox10(.LLC1), %o3
	xor	%o5, %gdop_lox10(.LLC3), %o5
	add	%sp, 120, %i4
.LLVL355:
	ld	[%l7 + %o2], %o2, %gdop(.LLC0)
	st	%g1, [%sp+104]
	mov	256, %o1
	mov	%i4, %o0
.LLVL356:
	ld	[%fp-4], %g1
	mov	%g3, %o4
	ld	[%l7 + %o3], %o3, %gdop(.LLC1)
	ld	[%l7 + %o5], %o5, %gdop(.LLC3)
	st	%g2, [%sp+92]
	st	%g3, [%sp+100]
	call	snprintf, 0
	 st	%g1, [%sp+108]
.LLVL357:
	sethi	%gdop_hix22(.LLC4), %o1
	mov	%i4, %o0
	xor	%o1, %gdop_lox10(.LLC4), %o1
	mov	115, %o2
	call	__assert, 0
	 ld	[%l7 + %o1], %o1, %gdop(.LLC4)
	ba,pt	%xcc, .LL228
	 nop
.LLBE200:
.LLBE205:
	.cfi_endproc
.LLFE53:
	.size	atomic_sub_char, .-atomic_sub_char
	.align 4
	.align 32
	.global atomic_sub_16
	.type	atomic_sub_16, #function
	.proc	020
atomic_sub_16:
.LLFB54:
	.loc 1 116 0 is_stmt 1
	.cfi_startproc
.LLVL358:
	save	%sp, -128, %sp
.LLCFI29:
	.cfi_def_cfa_register 30
	.cfi_window_save
	.cfi_register 15, 31
.LLBB206:
	sethi	%gdop_hix22(atomic_lock), %i5
.LLBE206:
	sethi	%hi(_GLOBAL_OFFSET_TABLE_-4), %l7
	call	__sparc_get_pc_thunk.l7
	 add	%l7, %lo(_GLOBAL_OFFSET_TABLE_+4), %l7
.LLBB208:
	.loc 1 116 0
	xor	%i5, %gdop_lox10(atomic_lock), %i5
	ld	[%l7 + %i5], %i5, %gdop(atomic_lock)
	call	pthread_mutex_lock, 0
	 mov	%i5, %o0
	sra	%o0, 31, %g2
.LLVL359:
	orcc	%g2, %o0, %g0
	bne,pn	%icc, .LL240
	 mov	%o0, %g1
.LLVL360:
.LL236:
.LLBE208:
	.loc 1 116 0 is_stmt 0 discriminator 2
	lduh	[%i0], %g1
.LLBB209:
	mov	%i5, %o0
.LLBE209:
	sub	%g1, %i1, %i1
.LLVL361:
	sth	%i1, [%i0]
.LLBB211:
	call	pthread_mutex_unlock, 0
	 nop
	sra	%o0, 31, %g2
.LLVL362:
	orcc	%g2, %o0, %g0
	be,pt	%icc, .LL242
	 mov	%o0, %g1
.LLBB210:
	.loc 1 116 0 discriminator 3
	add	%sp, -264, %sp
	stx	%g0, [%fp-8]
	sethi	%gdop_hix22(.LLC2), %g3
	st	%g1, [%sp+96]
	sethi	%gdop_hix22(.LLC0), %o2
	xor	%g3, %gdop_lox10(.LLC2), %g3
	ld	[%fp-8], %g1
	sethi	%gdop_hix22(.LLC5), %o3
	sethi	%gdop_hix22(.LLC3), %o5
	ld	[%l7 + %g3], %g3, %gdop(.LLC2)
	xor	%o2, %gdop_lox10(.LLC0), %o2
	xor	%o3, %gdop_lox10(.LLC5), %o3
	xor	%o5, %gdop_lox10(.LLC3), %o5
	add	%sp, 120, %i5
.LLVL363:
	ld	[%l7 + %o2], %o2, %gdop(.LLC0)
	st	%g1, [%sp+104]
	mov	256, %o1
	mov	%i5, %o0
.LLVL364:
	ld	[%fp-4], %g1
	mov	%g3, %o4
	ld	[%l7 + %o3], %o3, %gdop(.LLC5)
	ld	[%l7 + %o5], %o5, %gdop(.LLC3)
	st	%g2, [%sp+92]
	st	%g3, [%sp+100]
	call	snprintf, 0
	 st	%g1, [%sp+108]
.LLVL365:
	sethi	%gdop_hix22(.LLC4), %o1
	mov	%i5, %o0
	xor	%o1, %gdop_lox10(.LLC4), %o1
	mov	116, %o2
	call	__assert, 0
	 ld	[%l7 + %o1], %o1, %gdop(.LLC4)
.LL242:
	return	%i7+8
	 nop
.LLVL366:
.LL240:
.LLBE210:
.LLBE211:
.LLBB212:
.LLBB207:
	.loc 1 116 0 discriminator 1
	add	%sp, -264, %sp
	stx	%g0, [%fp-8]
	sethi	%gdop_hix22(.LLC2), %g3
	st	%g1, [%sp+96]
	sethi	%gdop_hix22(.LLC0), %o2
	xor	%g3, %gdop_lox10(.LLC2), %g3
	ld	[%fp-8], %g1
.LLVL367:
	sethi	%gdop_hix22(.LLC1), %o3
	sethi	%gdop_hix22(.LLC3), %o5
	ld	[%l7 + %g3], %g3, %gdop(.LLC2)
	xor	%o2, %gdop_lox10(.LLC0), %o2
	xor	%o3, %gdop_lox10(.LLC1), %o3
	xor	%o5, %gdop_lox10(.LLC3), %o5
	add	%sp, 120, %i4
.LLVL368:
	ld	[%l7 + %o2], %o2, %gdop(.LLC0)
	st	%g1, [%sp+104]
	mov	256, %o1
	mov	%i4, %o0
.LLVL369:
	ld	[%fp-4], %g1
	mov	%g3, %o4
	ld	[%l7 + %o3], %o3, %gdop(.LLC1)
	ld	[%l7 + %o5], %o5, %gdop(.LLC3)
	st	%g2, [%sp+92]
	st	%g3, [%sp+100]
	call	snprintf, 0
	 st	%g1, [%sp+108]
.LLVL370:
	sethi	%gdop_hix22(.LLC4), %o1
	mov	%i4, %o0
	xor	%o1, %gdop_lox10(.LLC4), %o1
	mov	116, %o2
	call	__assert, 0
	 ld	[%l7 + %o1], %o1, %gdop(.LLC4)
	ba,pt	%xcc, .LL236
	 nop
.LLBE207:
.LLBE212:
	.cfi_endproc
.LLFE54:
	.size	atomic_sub_16, .-atomic_sub_16
	.align 4
	.align 32
	.global atomic_sub_short
	.type	atomic_sub_short, #function
	.proc	020
atomic_sub_short:
.LLFB55:
	.loc 1 117 0 is_stmt 1
	.cfi_startproc
.LLVL371:
	save	%sp, -128, %sp
.LLCFI30:
	.cfi_def_cfa_register 30
	.cfi_window_save
	.cfi_register 15, 31
.LLBB213:
	sethi	%gdop_hix22(atomic_lock), %i5
.LLBE213:
	sethi	%hi(_GLOBAL_OFFSET_TABLE_-4), %l7
	call	__sparc_get_pc_thunk.l7
	 add	%l7, %lo(_GLOBAL_OFFSET_TABLE_+4), %l7
.LLBB215:
	.loc 1 117 0
	xor	%i5, %gdop_lox10(atomic_lock), %i5
	ld	[%l7 + %i5], %i5, %gdop(atomic_lock)
	call	pthread_mutex_lock, 0
	 mov	%i5, %o0
	sra	%o0, 31, %g2
.LLVL372:
	orcc	%g2, %o0, %g0
	bne,pn	%icc, .LL248
	 mov	%o0, %g1
.LLVL373:
.LL244:
.LLBE215:
	.loc 1 117 0 is_stmt 0 discriminator 2
	lduh	[%i0], %g1
.LLBB216:
	mov	%i5, %o0
.LLBE216:
	sub	%g1, %i1, %i1
.LLVL374:
	sth	%i1, [%i0]
.LLBB218:
	call	pthread_mutex_unlock, 0
	 nop
	sra	%o0, 31, %g2
.LLVL375:
	orcc	%g2, %o0, %g0
	be,pt	%icc, .LL250
	 mov	%o0, %g1
.LLBB217:
	.loc 1 117 0 discriminator 3
	add	%sp, -264, %sp
	stx	%g0, [%fp-8]
	sethi	%gdop_hix22(.LLC2), %g3
	st	%g1, [%sp+96]
	sethi	%gdop_hix22(.LLC0), %o2
	xor	%g3, %gdop_lox10(.LLC2), %g3
	ld	[%fp-8], %g1
	sethi	%gdop_hix22(.LLC5), %o3
	sethi	%gdop_hix22(.LLC3), %o5
	ld	[%l7 + %g3], %g3, %gdop(.LLC2)
	xor	%o2, %gdop_lox10(.LLC0), %o2
	xor	%o3, %gdop_lox10(.LLC5), %o3
	xor	%o5, %gdop_lox10(.LLC3), %o5
	add	%sp, 120, %i5
.LLVL376:
	ld	[%l7 + %o2], %o2, %gdop(.LLC0)
	st	%g1, [%sp+104]
	mov	256, %o1
	mov	%i5, %o0
.LLVL377:
	ld	[%fp-4], %g1
	mov	%g3, %o4
	ld	[%l7 + %o3], %o3, %gdop(.LLC5)
	ld	[%l7 + %o5], %o5, %gdop(.LLC3)
	st	%g2, [%sp+92]
	st	%g3, [%sp+100]
	call	snprintf, 0
	 st	%g1, [%sp+108]
.LLVL378:
	sethi	%gdop_hix22(.LLC4), %o1
	mov	%i5, %o0
	xor	%o1, %gdop_lox10(.LLC4), %o1
	mov	117, %o2
	call	__assert, 0
	 ld	[%l7 + %o1], %o1, %gdop(.LLC4)
.LL250:
	return	%i7+8
	 nop
.LLVL379:
.LL248:
.LLBE217:
.LLBE218:
.LLBB219:
.LLBB214:
	.loc 1 117 0 discriminator 1
	add	%sp, -264, %sp
	stx	%g0, [%fp-8]
	sethi	%gdop_hix22(.LLC2), %g3
	st	%g1, [%sp+96]
	sethi	%gdop_hix22(.LLC0), %o2
	xor	%g3, %gdop_lox10(.LLC2), %g3
	ld	[%fp-8], %g1
.LLVL380:
	sethi	%gdop_hix22(.LLC1), %o3
	sethi	%gdop_hix22(.LLC3), %o5
	ld	[%l7 + %g3], %g3, %gdop(.LLC2)
	xor	%o2, %gdop_lox10(.LLC0), %o2
	xor	%o3, %gdop_lox10(.LLC1), %o3
	xor	%o5, %gdop_lox10(.LLC3), %o5
	add	%sp, 120, %i4
.LLVL381:
	ld	[%l7 + %o2], %o2, %gdop(.LLC0)
	st	%g1, [%sp+104]
	mov	256, %o1
	mov	%i4, %o0
.LLVL382:
	ld	[%fp-4], %g1
	mov	%g3, %o4
	ld	[%l7 + %o3], %o3, %gdop(.LLC1)
	ld	[%l7 + %o5], %o5, %gdop(.LLC3)
	st	%g2, [%sp+92]
	st	%g3, [%sp+100]
	call	snprintf, 0
	 st	%g1, [%sp+108]
.LLVL383:
	sethi	%gdop_hix22(.LLC4), %o1
	mov	%i4, %o0
	xor	%o1, %gdop_lox10(.LLC4), %o1
	mov	117, %o2
	call	__assert, 0
	 ld	[%l7 + %o1], %o1, %gdop(.LLC4)
	ba,pt	%xcc, .LL244
	 nop
.LLBE214:
.LLBE219:
	.cfi_endproc
.LLFE55:
	.size	atomic_sub_short, .-atomic_sub_short
	.align 4
	.align 32
	.global atomic_sub_32
	.type	atomic_sub_32, #function
	.proc	020
atomic_sub_32:
.LLFB56:
	.loc 1 118 0 is_stmt 1
	.cfi_startproc
.LLVL384:
	save	%sp, -128, %sp
.LLCFI31:
	.cfi_def_cfa_register 30
	.cfi_window_save
	.cfi_register 15, 31
.LLBB220:
	sethi	%gdop_hix22(atomic_lock), %i5
.LLBE220:
	sethi	%hi(_GLOBAL_OFFSET_TABLE_-4), %l7
	call	__sparc_get_pc_thunk.l7
	 add	%l7, %lo(_GLOBAL_OFFSET_TABLE_+4), %l7
.LLBB222:
	.loc 1 118 0
	xor	%i5, %gdop_lox10(atomic_lock), %i5
	ld	[%l7 + %i5], %i5, %gdop(atomic_lock)
	call	pthread_mutex_lock, 0
	 mov	%i5, %o0
	sra	%o0, 31, %g2
.LLVL385:
	orcc	%g2, %o0, %g0
	bne,pn	%icc, .LL256
	 mov	%o0, %g1
.LLVL386:
.LL252:
.LLBE222:
	.loc 1 118 0 is_stmt 0 discriminator 2
	ld	[%i0], %g1
.LLBB223:
	mov	%i5, %o0
.LLBE223:
	sub	%g1, %i1, %i1
.LLVL387:
	st	%i1, [%i0]
.LLBB225:
	call	pthread_mutex_unlock, 0
	 nop
	sra	%o0, 31, %g2
.LLVL388:
	orcc	%g2, %o0, %g0
	be,pt	%icc, .LL258
	 mov	%o0, %g1
.LLBB224:
	.loc 1 118 0 discriminator 3
	add	%sp, -264, %sp
	stx	%g0, [%fp-8]
	sethi	%gdop_hix22(.LLC2), %g3
	st	%g1, [%sp+96]
	sethi	%gdop_hix22(.LLC0), %o2
	xor	%g3, %gdop_lox10(.LLC2), %g3
	ld	[%fp-8], %g1
	sethi	%gdop_hix22(.LLC5), %o3
	sethi	%gdop_hix22(.LLC3), %o5
	ld	[%l7 + %g3], %g3, %gdop(.LLC2)
	xor	%o2, %gdop_lox10(.LLC0), %o2
	xor	%o3, %gdop_lox10(.LLC5), %o3
	xor	%o5, %gdop_lox10(.LLC3), %o5
	add	%sp, 120, %i5
.LLVL389:
	ld	[%l7 + %o2], %o2, %gdop(.LLC0)
	st	%g1, [%sp+104]
	mov	256, %o1
	mov	%i5, %o0
.LLVL390:
	ld	[%fp-4], %g1
	mov	%g3, %o4
	ld	[%l7 + %o3], %o3, %gdop(.LLC5)
	ld	[%l7 + %o5], %o5, %gdop(.LLC3)
	st	%g2, [%sp+92]
	st	%g3, [%sp+100]
	call	snprintf, 0
	 st	%g1, [%sp+108]
.LLVL391:
	sethi	%gdop_hix22(.LLC4), %o1
	mov	%i5, %o0
	xor	%o1, %gdop_lox10(.LLC4), %o1
	mov	118, %o2
	call	__assert, 0
	 ld	[%l7 + %o1], %o1, %gdop(.LLC4)
.LL258:
	return	%i7+8
	 nop
.LLVL392:
.LL256:
.LLBE224:
.LLBE225:
.LLBB226:
.LLBB221:
	.loc 1 118 0 discriminator 1
	add	%sp, -264, %sp
	stx	%g0, [%fp-8]
	sethi	%gdop_hix22(.LLC2), %g3
	st	%g1, [%sp+96]
	sethi	%gdop_hix22(.LLC0), %o2
	xor	%g3, %gdop_lox10(.LLC2), %g3
	ld	[%fp-8], %g1
.LLVL393:
	sethi	%gdop_hix22(.LLC1), %o3
	sethi	%gdop_hix22(.LLC3), %o5
	ld	[%l7 + %g3], %g3, %gdop(.LLC2)
	xor	%o2, %gdop_lox10(.LLC0), %o2
	xor	%o3, %gdop_lox10(.LLC1), %o3
	xor	%o5, %gdop_lox10(.LLC3), %o5
	add	%sp, 120, %i4
.LLVL394:
	ld	[%l7 + %o2], %o2, %gdop(.LLC0)
	st	%g1, [%sp+104]
	mov	256, %o1
	mov	%i4, %o0
.LLVL395:
	ld	[%fp-4], %g1
	mov	%g3, %o4
	ld	[%l7 + %o3], %o3, %gdop(.LLC1)
	ld	[%l7 + %o5], %o5, %gdop(.LLC3)
	st	%g2, [%sp+92]
	st	%g3, [%sp+100]
	call	snprintf, 0
	 st	%g1, [%sp+108]
.LLVL396:
	sethi	%gdop_hix22(.LLC4), %o1
	mov	%i4, %o0
	xor	%o1, %gdop_lox10(.LLC4), %o1
	mov	118, %o2
	call	__assert, 0
	 ld	[%l7 + %o1], %o1, %gdop(.LLC4)
	ba,pt	%xcc, .LL252
	 nop
.LLBE221:
.LLBE226:
	.cfi_endproc
.LLFE56:
	.size	atomic_sub_32, .-atomic_sub_32
	.align 4
	.align 32
	.global atomic_sub_int
	.type	atomic_sub_int, #function
	.proc	020
atomic_sub_int:
.LLFB57:
	.loc 1 119 0 is_stmt 1
	.cfi_startproc
.LLVL397:
	save	%sp, -128, %sp
.LLCFI32:
	.cfi_def_cfa_register 30
	.cfi_window_save
	.cfi_register 15, 31
.LLBB227:
	sethi	%gdop_hix22(atomic_lock), %i5
.LLBE227:
	sethi	%hi(_GLOBAL_OFFSET_TABLE_-4), %l7
	call	__sparc_get_pc_thunk.l7
	 add	%l7, %lo(_GLOBAL_OFFSET_TABLE_+4), %l7
.LLBB229:
	.loc 1 119 0
	xor	%i5, %gdop_lox10(atomic_lock), %i5
	ld	[%l7 + %i5], %i5, %gdop(atomic_lock)
	call	pthread_mutex_lock, 0
	 mov	%i5, %o0
	sra	%o0, 31, %g2
.LLVL398:
	orcc	%g2, %o0, %g0
	bne,pn	%icc, .LL264
	 mov	%o0, %g1
.LLVL399:
.LL260:
.LLBE229:
	.loc 1 119 0 is_stmt 0 discriminator 2
	ld	[%i0], %g1
.LLBB230:
	mov	%i5, %o0
.LLBE230:
	sub	%g1, %i1, %i1
.LLVL400:
	st	%i1, [%i0]
.LLBB232:
	call	pthread_mutex_unlock, 0
	 nop
	sra	%o0, 31, %g2
.LLVL401:
	orcc	%g2, %o0, %g0
	be,pt	%icc, .LL266
	 mov	%o0, %g1
.LLBB231:
	.loc 1 119 0 discriminator 3
	add	%sp, -264, %sp
	stx	%g0, [%fp-8]
	sethi	%gdop_hix22(.LLC2), %g3
	st	%g1, [%sp+96]
	sethi	%gdop_hix22(.LLC0), %o2
	xor	%g3, %gdop_lox10(.LLC2), %g3
	ld	[%fp-8], %g1
	sethi	%gdop_hix22(.LLC5), %o3
	sethi	%gdop_hix22(.LLC3), %o5
	ld	[%l7 + %g3], %g3, %gdop(.LLC2)
	xor	%o2, %gdop_lox10(.LLC0), %o2
	xor	%o3, %gdop_lox10(.LLC5), %o3
	xor	%o5, %gdop_lox10(.LLC3), %o5
	add	%sp, 120, %i5
.LLVL402:
	ld	[%l7 + %o2], %o2, %gdop(.LLC0)
	st	%g1, [%sp+104]
	mov	256, %o1
	mov	%i5, %o0
.LLVL403:
	ld	[%fp-4], %g1
	mov	%g3, %o4
	ld	[%l7 + %o3], %o3, %gdop(.LLC5)
	ld	[%l7 + %o5], %o5, %gdop(.LLC3)
	st	%g2, [%sp+92]
	st	%g3, [%sp+100]
	call	snprintf, 0
	 st	%g1, [%sp+108]
.LLVL404:
	sethi	%gdop_hix22(.LLC4), %o1
	mov	%i5, %o0
	xor	%o1, %gdop_lox10(.LLC4), %o1
	mov	119, %o2
	call	__assert, 0
	 ld	[%l7 + %o1], %o1, %gdop(.LLC4)
.LL266:
	return	%i7+8
	 nop
.LLVL405:
.LL264:
.LLBE231:
.LLBE232:
.LLBB233:
.LLBB228:
	.loc 1 119 0 discriminator 1
	add	%sp, -264, %sp
	stx	%g0, [%fp-8]
	sethi	%gdop_hix22(.LLC2), %g3
	st	%g1, [%sp+96]
	sethi	%gdop_hix22(.LLC0), %o2
	xor	%g3, %gdop_lox10(.LLC2), %g3
	ld	[%fp-8], %g1
.LLVL406:
	sethi	%gdop_hix22(.LLC1), %o3
	sethi	%gdop_hix22(.LLC3), %o5
	ld	[%l7 + %g3], %g3, %gdop(.LLC2)
	xor	%o2, %gdop_lox10(.LLC0), %o2
	xor	%o3, %gdop_lox10(.LLC1), %o3
	xor	%o5, %gdop_lox10(.LLC3), %o5
	add	%sp, 120, %i4
.LLVL407:
	ld	[%l7 + %o2], %o2, %gdop(.LLC0)
	st	%g1, [%sp+104]
	mov	256, %o1
	mov	%i4, %o0
.LLVL408:
	ld	[%fp-4], %g1
	mov	%g3, %o4
	ld	[%l7 + %o3], %o3, %gdop(.LLC1)
	ld	[%l7 + %o5], %o5, %gdop(.LLC3)
	st	%g2, [%sp+92]
	st	%g3, [%sp+100]
	call	snprintf, 0
	 st	%g1, [%sp+108]
.LLVL409:
	sethi	%gdop_hix22(.LLC4), %o1
	mov	%i4, %o0
	xor	%o1, %gdop_lox10(.LLC4), %o1
	mov	119, %o2
	call	__assert, 0
	 ld	[%l7 + %o1], %o1, %gdop(.LLC4)
	ba,pt	%xcc, .LL260
	 nop
.LLBE228:
.LLBE233:
	.cfi_endproc
.LLFE57:
	.size	atomic_sub_int, .-atomic_sub_int
	.align 4
	.align 32
	.global atomic_sub_long
	.type	atomic_sub_long, #function
	.proc	020
atomic_sub_long:
.LLFB58:
	.loc 1 120 0 is_stmt 1
	.cfi_startproc
.LLVL410:
	save	%sp, -128, %sp
.LLCFI33:
	.cfi_def_cfa_register 30
	.cfi_window_save
	.cfi_register 15, 31
.LLBB234:
	sethi	%gdop_hix22(atomic_lock), %i5
.LLBE234:
	sethi	%hi(_GLOBAL_OFFSET_TABLE_-4), %l7
	call	__sparc_get_pc_thunk.l7
	 add	%l7, %lo(_GLOBAL_OFFSET_TABLE_+4), %l7
.LLBB236:
	.loc 1 120 0
	xor	%i5, %gdop_lox10(atomic_lock), %i5
	ld	[%l7 + %i5], %i5, %gdop(atomic_lock)
	call	pthread_mutex_lock, 0
	 mov	%i5, %o0
	sra	%o0, 31, %g2
.LLVL411:
	orcc	%g2, %o0, %g0
	bne,pn	%icc, .LL272
	 mov	%o0, %g1
.LLVL412:
.LL268:
.LLBE236:
	.loc 1 120 0 is_stmt 0 discriminator 2
	ld	[%i0], %g1
.LLBB237:
	mov	%i5, %o0
.LLBE237:
	sub	%g1, %i1, %i1
.LLVL413:
	st	%i1, [%i0]
.LLBB239:
	call	pthread_mutex_unlock, 0
	 nop
	sra	%o0, 31, %g2
.LLVL414:
	orcc	%g2, %o0, %g0
	be,pt	%icc, .LL274
	 mov	%o0, %g1
.LLBB238:
	.loc 1 120 0 discriminator 3
	add	%sp, -264, %sp
	stx	%g0, [%fp-8]
	sethi	%gdop_hix22(.LLC2), %g3
	st	%g1, [%sp+96]
	sethi	%gdop_hix22(.LLC0), %o2
	xor	%g3, %gdop_lox10(.LLC2), %g3
	ld	[%fp-8], %g1
	sethi	%gdop_hix22(.LLC5), %o3
	sethi	%gdop_hix22(.LLC3), %o5
	ld	[%l7 + %g3], %g3, %gdop(.LLC2)
	xor	%o2, %gdop_lox10(.LLC0), %o2
	xor	%o3, %gdop_lox10(.LLC5), %o3
	xor	%o5, %gdop_lox10(.LLC3), %o5
	add	%sp, 120, %i5
.LLVL415:
	ld	[%l7 + %o2], %o2, %gdop(.LLC0)
	st	%g1, [%sp+104]
	mov	256, %o1
	mov	%i5, %o0
.LLVL416:
	ld	[%fp-4], %g1
	mov	%g3, %o4
	ld	[%l7 + %o3], %o3, %gdop(.LLC5)
	ld	[%l7 + %o5], %o5, %gdop(.LLC3)
	st	%g2, [%sp+92]
	st	%g3, [%sp+100]
	call	snprintf, 0
	 st	%g1, [%sp+108]
.LLVL417:
	sethi	%gdop_hix22(.LLC4), %o1
	mov	%i5, %o0
	xor	%o1, %gdop_lox10(.LLC4), %o1
	mov	120, %o2
	call	__assert, 0
	 ld	[%l7 + %o1], %o1, %gdop(.LLC4)
.LL274:
	return	%i7+8
	 nop
.LLVL418:
.LL272:
.LLBE238:
.LLBE239:
.LLBB240:
.LLBB235:
	.loc 1 120 0 discriminator 1
	add	%sp, -264, %sp
	stx	%g0, [%fp-8]
	sethi	%gdop_hix22(.LLC2), %g3
	st	%g1, [%sp+96]
	sethi	%gdop_hix22(.LLC0), %o2
	xor	%g3, %gdop_lox10(.LLC2), %g3
	ld	[%fp-8], %g1
.LLVL419:
	sethi	%gdop_hix22(.LLC1), %o3
	sethi	%gdop_hix22(.LLC3), %o5
	ld	[%l7 + %g3], %g3, %gdop(.LLC2)
	xor	%o2, %gdop_lox10(.LLC0), %o2
	xor	%o3, %gdop_lox10(.LLC1), %o3
	xor	%o5, %gdop_lox10(.LLC3), %o5
	add	%sp, 120, %i4
.LLVL420:
	ld	[%l7 + %o2], %o2, %gdop(.LLC0)
	st	%g1, [%sp+104]
	mov	256, %o1
	mov	%i4, %o0
.LLVL421:
	ld	[%fp-4], %g1
	mov	%g3, %o4
	ld	[%l7 + %o3], %o3, %gdop(.LLC1)
	ld	[%l7 + %o5], %o5, %gdop(.LLC3)
	st	%g2, [%sp+92]
	st	%g3, [%sp+100]
	call	snprintf, 0
	 st	%g1, [%sp+108]
.LLVL422:
	sethi	%gdop_hix22(.LLC4), %o1
	mov	%i4, %o0
	xor	%o1, %gdop_lox10(.LLC4), %o1
	mov	120, %o2
	call	__assert, 0
	 ld	[%l7 + %o1], %o1, %gdop(.LLC4)
	ba,pt	%xcc, .LL268
	 nop
.LLBE235:
.LLBE240:
	.cfi_endproc
.LLFE58:
	.size	atomic_sub_long, .-atomic_sub_long
	.align 4
	.align 32
	.global atomic_sub_64
	.type	atomic_sub_64, #function
	.proc	020
atomic_sub_64:
.LLFB59:
	.loc 1 121 0 is_stmt 1
	.cfi_startproc
.LLVL423:
	save	%sp, -128, %sp
.LLCFI34:
	.cfi_def_cfa_register 30
	.cfi_window_save
	.cfi_register 15, 31
.LLBB241:
	sethi	%gdop_hix22(atomic_lock), %i3
.LLBE241:
	mov	%i1, %i4
	sethi	%hi(_GLOBAL_OFFSET_TABLE_-4), %l7
	call	__sparc_get_pc_thunk.l7
	 add	%l7, %lo(_GLOBAL_OFFSET_TABLE_+4), %l7
.LLBB243:
	.loc 1 121 0
	xor	%i3, %gdop_lox10(atomic_lock), %i3
.LLBE243:
	mov	%i2, %i5
.LLBB244:
	ld	[%l7 + %i3], %i3, %gdop(atomic_lock)
	call	pthread_mutex_lock, 0
	 mov	%i3, %o0
	sra	%o0, 31, %g2
.LLVL424:
	orcc	%g2, %o0, %g0
	bne,pn	%icc, .LL280
	 mov	%o0, %g1
.LLVL425:
.LL276:
.LLBE244:
	.loc 1 121 0 is_stmt 0 discriminator 2
	ldd	[%i0], %g2
.LLBB245:
	mov	%i3, %o0
.LLBE245:
	subcc	%g3, %i5, %i5
	subx	%g2, %i4, %i4
	std	%i4, [%i0]
.LLBB247:
	call	pthread_mutex_unlock, 0
	 nop
	sra	%o0, 31, %g2
.LLVL426:
	orcc	%g2, %o0, %g0
	be,pt	%icc, .LL282
	 mov	%o0, %g1
.LLBB246:
	.loc 1 121 0 discriminator 3
	add	%sp, -264, %sp
	stx	%g0, [%fp-8]
	sethi	%gdop_hix22(.LLC2), %g3
	st	%g1, [%sp+96]
	sethi	%gdop_hix22(.LLC0), %o2
	xor	%g3, %gdop_lox10(.LLC2), %g3
	ld	[%fp-8], %g1
	sethi	%gdop_hix22(.LLC5), %o3
	sethi	%gdop_hix22(.LLC3), %o5
	ld	[%l7 + %g3], %g3, %gdop(.LLC2)
	xor	%o2, %gdop_lox10(.LLC0), %o2
	xor	%o3, %gdop_lox10(.LLC5), %o3
	xor	%o5, %gdop_lox10(.LLC3), %o5
	add	%sp, 120, %i4
.LLVL427:
	ld	[%l7 + %o2], %o2, %gdop(.LLC0)
	st	%g1, [%sp+104]
	mov	256, %o1
	mov	%i4, %o0
.LLVL428:
	ld	[%fp-4], %g1
	mov	%g3, %o4
	ld	[%l7 + %o3], %o3, %gdop(.LLC5)
	ld	[%l7 + %o5], %o5, %gdop(.LLC3)
	st	%g2, [%sp+92]
	st	%g3, [%sp+100]
	call	snprintf, 0
	 st	%g1, [%sp+108]
.LLVL429:
	sethi	%gdop_hix22(.LLC4), %o1
	mov	%i4, %o0
	xor	%o1, %gdop_lox10(.LLC4), %o1
	mov	121, %o2
	call	__assert, 0
	 ld	[%l7 + %o1], %o1, %gdop(.LLC4)
.LL282:
	return	%i7+8
	 nop
.LLVL430:
.LL280:
.LLBE246:
.LLBE247:
.LLBB248:
.LLBB242:
	.loc 1 121 0 discriminator 1
	add	%sp, -264, %sp
	stx	%g0, [%fp-8]
	sethi	%gdop_hix22(.LLC2), %g3
	st	%g1, [%sp+96]
	sethi	%gdop_hix22(.LLC0), %o2
	xor	%g3, %gdop_lox10(.LLC2), %g3
	ld	[%fp-8], %g1
.LLVL431:
	sethi	%gdop_hix22(.LLC1), %o3
	sethi	%gdop_hix22(.LLC3), %o5
	ld	[%l7 + %g3], %g3, %gdop(.LLC2)
	xor	%o2, %gdop_lox10(.LLC0), %o2
	xor	%o3, %gdop_lox10(.LLC1), %o3
	xor	%o5, %gdop_lox10(.LLC3), %o5
	add	%sp, 120, %i2
.LLVL432:
	ld	[%l7 + %o2], %o2, %gdop(.LLC0)
	st	%g1, [%sp+104]
	mov	256, %o1
	mov	%i2, %o0
.LLVL433:
	ld	[%fp-4], %g1
	mov	%g3, %o4
	ld	[%l7 + %o3], %o3, %gdop(.LLC1)
	ld	[%l7 + %o5], %o5, %gdop(.LLC3)
	st	%g2, [%sp+92]
	st	%g3, [%sp+100]
	call	snprintf, 0
	 st	%g1, [%sp+108]
.LLVL434:
	sethi	%gdop_hix22(.LLC4), %o1
	mov	%i2, %o0
	xor	%o1, %gdop_lox10(.LLC4), %o1
	mov	121, %o2
	call	__assert, 0
	 ld	[%l7 + %o1], %o1, %gdop(.LLC4)
	ba,pt	%xcc, .LL276
	 nop
.LLBE242:
.LLBE248:
	.cfi_endproc
.LLFE59:
	.size	atomic_sub_64, .-atomic_sub_64
	.align 4
	.align 32
	.global atomic_sub_ptr
	.type	atomic_sub_ptr, #function
	.proc	020
atomic_sub_ptr:
.LLFB60:
	.loc 1 124 0 is_stmt 1
	.cfi_startproc
.LLVL435:
	save	%sp, -128, %sp
.LLCFI35:
	.cfi_def_cfa_register 30
	.cfi_window_save
	.cfi_register 15, 31
.LLBB249:
	.loc 1 125 0
	sethi	%gdop_hix22(atomic_lock), %i5
.LLBE249:
	.loc 1 124 0
	sethi	%hi(_GLOBAL_OFFSET_TABLE_-4), %l7
	call	__sparc_get_pc_thunk.l7
	 add	%l7, %lo(_GLOBAL_OFFSET_TABLE_+4), %l7
.LLBB251:
	.loc 1 125 0
	xor	%i5, %gdop_lox10(atomic_lock), %i5
	ld	[%l7 + %i5], %i5, %gdop(atomic_lock)
	call	pthread_mutex_lock, 0
	 mov	%i5, %o0
	sra	%o0, 31, %g2
.LLVL436:
	orcc	%g2, %o0, %g0
	bne,pn	%icc, .LL288
	 mov	%o0, %g1
.LLVL437:
.LLBE251:
	.loc 1 126 0
	ld	[%i0], %g1
.LL290:
.LLBB252:
	.loc 1 127 0
	mov	%i5, %o0
.LLBE252:
	.loc 1 126 0
	sub	%g1, %i1, %i1
.LLVL438:
.LLBB254:
	.loc 1 127 0
	call	pthread_mutex_unlock, 0
	 st	%i1, [%i0]
	sra	%o0, 31, %g2
.LLVL439:
	orcc	%g2, %o0, %g0
	be,pt	%icc, .LL291
	 mov	%o0, %g1
.LLBB253:
	.loc 1 127 0 is_stmt 0 discriminator 1
	add	%sp, -264, %sp
	stx	%g0, [%fp-8]
	sethi	%gdop_hix22(.LLC2), %g3
	st	%g1, [%sp+96]
	sethi	%gdop_hix22(.LLC0), %o2
	xor	%g3, %gdop_lox10(.LLC2), %g3
	ld	[%fp-8], %g1
	sethi	%gdop_hix22(.LLC5), %o3
	sethi	%gdop_hix22(.LLC3), %o5
	ld	[%l7 + %g3], %g3, %gdop(.LLC2)
	xor	%o2, %gdop_lox10(.LLC0), %o2
	xor	%o3, %gdop_lox10(.LLC5), %o3
	xor	%o5, %gdop_lox10(.LLC3), %o5
	add	%sp, 120, %i5
.LLVL440:
	ld	[%l7 + %o2], %o2, %gdop(.LLC0)
	st	%g1, [%sp+104]
	mov	256, %o1
	mov	%i5, %o0
.LLVL441:
	ld	[%fp-4], %g1
	mov	%g3, %o4
	ld	[%l7 + %o3], %o3, %gdop(.LLC5)
	ld	[%l7 + %o5], %o5, %gdop(.LLC3)
	st	%g2, [%sp+92]
	st	%g3, [%sp+100]
	call	snprintf, 0
	 st	%g1, [%sp+108]
.LLVL442:
	sethi	%gdop_hix22(.LLC4), %o1
	mov	%i5, %o0
	xor	%o1, %gdop_lox10(.LLC4), %o1
	mov	127, %o2
	call	__assert, 0
	 ld	[%l7 + %o1], %o1, %gdop(.LLC4)
.LL291:
	return	%i7+8
	 nop
.LLVL443:
.LL288:
.LLBE253:
.LLBE254:
.LLBB255:
.LLBB250:
	.loc 1 125 0 is_stmt 1 discriminator 1
	add	%sp, -264, %sp
	stx	%g0, [%fp-8]
	sethi	%gdop_hix22(.LLC2), %g3
	st	%g1, [%sp+96]
	sethi	%gdop_hix22(.LLC0), %o2
	xor	%g3, %gdop_lox10(.LLC2), %g3
	ld	[%fp-8], %g1
.LLVL444:
	sethi	%gdop_hix22(.LLC1), %o3
	sethi	%gdop_hix22(.LLC3), %o5
	ld	[%l7 + %g3], %g3, %gdop(.LLC2)
	xor	%o2, %gdop_lox10(.LLC0), %o2
	xor	%o3, %gdop_lox10(.LLC1), %o3
	xor	%o5, %gdop_lox10(.LLC3), %o5
	add	%sp, 120, %i4
.LLVL445:
	ld	[%l7 + %o2], %o2, %gdop(.LLC0)
	st	%g1, [%sp+104]
	mov	256, %o1
	mov	%i4, %o0
.LLVL446:
	ld	[%fp-4], %g1
	mov	%g3, %o4
	ld	[%l7 + %o3], %o3, %gdop(.LLC1)
	ld	[%l7 + %o5], %o5, %gdop(.LLC3)
	st	%g2, [%sp+92]
	st	%g3, [%sp+100]
	call	snprintf, 0
	 st	%g1, [%sp+108]
.LLVL447:
	sethi	%gdop_hix22(.LLC4), %o1
	mov	%i4, %o0
	xor	%o1, %gdop_lox10(.LLC4), %o1
	mov	125, %o2
	call	__assert, 0
	 ld	[%l7 + %o1], %o1, %gdop(.LLC4)
	.loc 1 126 0 discriminator 1
	ba,pt	%xcc, .LL290
	 ld	[%i0], %g1
.LLBE250:
.LLBE255:
	.cfi_endproc
.LLFE60:
	.size	atomic_sub_ptr, .-atomic_sub_ptr
	.align 4
	.align 32
	.global atomic_or_8
	.type	atomic_or_8, #function
	.proc	020
atomic_or_8:
.LLFB61:
	.loc 1 139 0
	.cfi_startproc
.LLVL448:
	save	%sp, -128, %sp
.LLCFI36:
	.cfi_def_cfa_register 30
	.cfi_window_save
	.cfi_register 15, 31
.LLBB256:
	sethi	%gdop_hix22(atomic_lock), %i5
.LLBE256:
	sethi	%hi(_GLOBAL_OFFSET_TABLE_-4), %l7
	call	__sparc_get_pc_thunk.l7
	 add	%l7, %lo(_GLOBAL_OFFSET_TABLE_+4), %l7
.LLBB258:
	.loc 1 139 0
	xor	%i5, %gdop_lox10(atomic_lock), %i5
	ld	[%l7 + %i5], %i5, %gdop(atomic_lock)
	call	pthread_mutex_lock, 0
	 mov	%i5, %o0
	sra	%o0, 31, %g2
.LLVL449:
	orcc	%g2, %o0, %g0
	bne,pn	%icc, .LL297
	 mov	%o0, %g1
.LLVL450:
.LL293:
.LLBE258:
	.loc 1 139 0 is_stmt 0 discriminator 2
	ldub	[%i0], %g1
.LLBB259:
	mov	%i5, %o0
.LLBE259:
	or	%i1, %g1, %i1
.LLVL451:
	stb	%i1, [%i0]
.LLBB261:
	call	pthread_mutex_unlock, 0
	 nop
	sra	%o0, 31, %g2
.LLVL452:
	orcc	%g2, %o0, %g0
	be,pt	%icc, .LL299
	 mov	%o0, %g1
.LLBB260:
	.loc 1 139 0 discriminator 3
	add	%sp, -264, %sp
	stx	%g0, [%fp-8]
	sethi	%gdop_hix22(.LLC2), %g3
	st	%g1, [%sp+96]
	sethi	%gdop_hix22(.LLC0), %o2
	xor	%g3, %gdop_lox10(.LLC2), %g3
	ld	[%fp-8], %g1
	sethi	%gdop_hix22(.LLC5), %o3
	sethi	%gdop_hix22(.LLC3), %o5
	ld	[%l7 + %g3], %g3, %gdop(.LLC2)
	xor	%o2, %gdop_lox10(.LLC0), %o2
	xor	%o3, %gdop_lox10(.LLC5), %o3
	xor	%o5, %gdop_lox10(.LLC3), %o5
	add	%sp, 120, %i5
.LLVL453:
	ld	[%l7 + %o2], %o2, %gdop(.LLC0)
	st	%g1, [%sp+104]
	mov	256, %o1
	mov	%i5, %o0
.LLVL454:
	ld	[%fp-4], %g1
	mov	%g3, %o4
	ld	[%l7 + %o3], %o3, %gdop(.LLC5)
	ld	[%l7 + %o5], %o5, %gdop(.LLC3)
	st	%g2, [%sp+92]
	st	%g3, [%sp+100]
	call	snprintf, 0
	 st	%g1, [%sp+108]
.LLVL455:
	sethi	%gdop_hix22(.LLC4), %o1
	mov	%i5, %o0
	xor	%o1, %gdop_lox10(.LLC4), %o1
	mov	139, %o2
	call	__assert, 0
	 ld	[%l7 + %o1], %o1, %gdop(.LLC4)
.LL299:
	return	%i7+8
	 nop
.LLVL456:
.LL297:
.LLBE260:
.LLBE261:
.LLBB262:
.LLBB257:
	.loc 1 139 0 discriminator 1
	add	%sp, -264, %sp
	stx	%g0, [%fp-8]
	sethi	%gdop_hix22(.LLC2), %g3
	st	%g1, [%sp+96]
	sethi	%gdop_hix22(.LLC0), %o2
	xor	%g3, %gdop_lox10(.LLC2), %g3
	ld	[%fp-8], %g1
.LLVL457:
	sethi	%gdop_hix22(.LLC1), %o3
	sethi	%gdop_hix22(.LLC3), %o5
	ld	[%l7 + %g3], %g3, %gdop(.LLC2)
	xor	%o2, %gdop_lox10(.LLC0), %o2
	xor	%o3, %gdop_lox10(.LLC1), %o3
	xor	%o5, %gdop_lox10(.LLC3), %o5
	add	%sp, 120, %i4
.LLVL458:
	ld	[%l7 + %o2], %o2, %gdop(.LLC0)
	st	%g1, [%sp+104]
	mov	256, %o1
	mov	%i4, %o0
.LLVL459:
	ld	[%fp-4], %g1
	mov	%g3, %o4
	ld	[%l7 + %o3], %o3, %gdop(.LLC1)
	ld	[%l7 + %o5], %o5, %gdop(.LLC3)
	st	%g2, [%sp+92]
	st	%g3, [%sp+100]
	call	snprintf, 0
	 st	%g1, [%sp+108]
.LLVL460:
	sethi	%gdop_hix22(.LLC4), %o1
	mov	%i4, %o0
	xor	%o1, %gdop_lox10(.LLC4), %o1
	mov	139, %o2
	call	__assert, 0
	 ld	[%l7 + %o1], %o1, %gdop(.LLC4)
	ba,pt	%xcc, .LL293
	 nop
.LLBE257:
.LLBE262:
	.cfi_endproc
.LLFE61:
	.size	atomic_or_8, .-atomic_or_8
	.align 4
	.align 32
	.global atomic_or_uchar
	.type	atomic_or_uchar, #function
	.proc	020
atomic_or_uchar:
.LLFB62:
	.loc 1 140 0 is_stmt 1
	.cfi_startproc
.LLVL461:
	save	%sp, -128, %sp
.LLCFI37:
	.cfi_def_cfa_register 30
	.cfi_window_save
	.cfi_register 15, 31
.LLBB263:
	sethi	%gdop_hix22(atomic_lock), %i5
.LLBE263:
	sethi	%hi(_GLOBAL_OFFSET_TABLE_-4), %l7
	call	__sparc_get_pc_thunk.l7
	 add	%l7, %lo(_GLOBAL_OFFSET_TABLE_+4), %l7
.LLBB265:
	.loc 1 140 0
	xor	%i5, %gdop_lox10(atomic_lock), %i5
	ld	[%l7 + %i5], %i5, %gdop(atomic_lock)
	call	pthread_mutex_lock, 0
	 mov	%i5, %o0
	sra	%o0, 31, %g2
.LLVL462:
	orcc	%g2, %o0, %g0
	bne,pn	%icc, .LL305
	 mov	%o0, %g1
.LLVL463:
.LL301:
.LLBE265:
	.loc 1 140 0 is_stmt 0 discriminator 2
	ldub	[%i0], %g1
.LLBB266:
	mov	%i5, %o0
.LLBE266:
	or	%i1, %g1, %i1
.LLVL464:
	stb	%i1, [%i0]
.LLBB268:
	call	pthread_mutex_unlock, 0
	 nop
	sra	%o0, 31, %g2
.LLVL465:
	orcc	%g2, %o0, %g0
	be,pt	%icc, .LL307
	 mov	%o0, %g1
.LLBB267:
	.loc 1 140 0 discriminator 3
	add	%sp, -264, %sp
	stx	%g0, [%fp-8]
	sethi	%gdop_hix22(.LLC2), %g3
	st	%g1, [%sp+96]
	sethi	%gdop_hix22(.LLC0), %o2
	xor	%g3, %gdop_lox10(.LLC2), %g3
	ld	[%fp-8], %g1
	sethi	%gdop_hix22(.LLC5), %o3
	sethi	%gdop_hix22(.LLC3), %o5
	ld	[%l7 + %g3], %g3, %gdop(.LLC2)
	xor	%o2, %gdop_lox10(.LLC0), %o2
	xor	%o3, %gdop_lox10(.LLC5), %o3
	xor	%o5, %gdop_lox10(.LLC3), %o5
	add	%sp, 120, %i5
.LLVL466:
	ld	[%l7 + %o2], %o2, %gdop(.LLC0)
	st	%g1, [%sp+104]
	mov	256, %o1
	mov	%i5, %o0
.LLVL467:
	ld	[%fp-4], %g1
	mov	%g3, %o4
	ld	[%l7 + %o3], %o3, %gdop(.LLC5)
	ld	[%l7 + %o5], %o5, %gdop(.LLC3)
	st	%g2, [%sp+92]
	st	%g3, [%sp+100]
	call	snprintf, 0
	 st	%g1, [%sp+108]
.LLVL468:
	sethi	%gdop_hix22(.LLC4), %o1
	mov	%i5, %o0
	xor	%o1, %gdop_lox10(.LLC4), %o1
	mov	140, %o2
	call	__assert, 0
	 ld	[%l7 + %o1], %o1, %gdop(.LLC4)
.LL307:
	return	%i7+8
	 nop
.LLVL469:
.LL305:
.LLBE267:
.LLBE268:
.LLBB269:
.LLBB264:
	.loc 1 140 0 discriminator 1
	add	%sp, -264, %sp
	stx	%g0, [%fp-8]
	sethi	%gdop_hix22(.LLC2), %g3
	st	%g1, [%sp+96]
	sethi	%gdop_hix22(.LLC0), %o2
	xor	%g3, %gdop_lox10(.LLC2), %g3
	ld	[%fp-8], %g1
.LLVL470:
	sethi	%gdop_hix22(.LLC1), %o3
	sethi	%gdop_hix22(.LLC3), %o5
	ld	[%l7 + %g3], %g3, %gdop(.LLC2)
	xor	%o2, %gdop_lox10(.LLC0), %o2
	xor	%o3, %gdop_lox10(.LLC1), %o3
	xor	%o5, %gdop_lox10(.LLC3), %o5
	add	%sp, 120, %i4
.LLVL471:
	ld	[%l7 + %o2], %o2, %gdop(.LLC0)
	st	%g1, [%sp+104]
	mov	256, %o1
	mov	%i4, %o0
.LLVL472:
	ld	[%fp-4], %g1
	mov	%g3, %o4
	ld	[%l7 + %o3], %o3, %gdop(.LLC1)
	ld	[%l7 + %o5], %o5, %gdop(.LLC3)
	st	%g2, [%sp+92]
	st	%g3, [%sp+100]
	call	snprintf, 0
	 st	%g1, [%sp+108]
.LLVL473:
	sethi	%gdop_hix22(.LLC4), %o1
	mov	%i4, %o0
	xor	%o1, %gdop_lox10(.LLC4), %o1
	mov	140, %o2
	call	__assert, 0
	 ld	[%l7 + %o1], %o1, %gdop(.LLC4)
	ba,pt	%xcc, .LL301
	 nop
.LLBE264:
.LLBE269:
	.cfi_endproc
.LLFE62:
	.size	atomic_or_uchar, .-atomic_or_uchar
	.align 4
	.align 32
	.global atomic_or_16
	.type	atomic_or_16, #function
	.proc	020
atomic_or_16:
.LLFB63:
	.loc 1 141 0 is_stmt 1
	.cfi_startproc
.LLVL474:
	save	%sp, -128, %sp
.LLCFI38:
	.cfi_def_cfa_register 30
	.cfi_window_save
	.cfi_register 15, 31
.LLBB270:
	sethi	%gdop_hix22(atomic_lock), %i5
.LLBE270:
	sethi	%hi(_GLOBAL_OFFSET_TABLE_-4), %l7
	call	__sparc_get_pc_thunk.l7
	 add	%l7, %lo(_GLOBAL_OFFSET_TABLE_+4), %l7
.LLBB272:
	.loc 1 141 0
	xor	%i5, %gdop_lox10(atomic_lock), %i5
	ld	[%l7 + %i5], %i5, %gdop(atomic_lock)
	call	pthread_mutex_lock, 0
	 mov	%i5, %o0
	sra	%o0, 31, %g2
.LLVL475:
	orcc	%g2, %o0, %g0
	bne,pn	%icc, .LL313
	 mov	%o0, %g1
.LLVL476:
.LL309:
.LLBE272:
	.loc 1 141 0 is_stmt 0 discriminator 2
	lduh	[%i0], %g1
.LLBB273:
	mov	%i5, %o0
.LLBE273:
	or	%i1, %g1, %i1
.LLVL477:
	sth	%i1, [%i0]
.LLBB275:
	call	pthread_mutex_unlock, 0
	 nop
	sra	%o0, 31, %g2
.LLVL478:
	orcc	%g2, %o0, %g0
	be,pt	%icc, .LL315
	 mov	%o0, %g1
.LLBB274:
	.loc 1 141 0 discriminator 3
	add	%sp, -264, %sp
	stx	%g0, [%fp-8]
	sethi	%gdop_hix22(.LLC2), %g3
	st	%g1, [%sp+96]
	sethi	%gdop_hix22(.LLC0), %o2
	xor	%g3, %gdop_lox10(.LLC2), %g3
	ld	[%fp-8], %g1
	sethi	%gdop_hix22(.LLC5), %o3
	sethi	%gdop_hix22(.LLC3), %o5
	ld	[%l7 + %g3], %g3, %gdop(.LLC2)
	xor	%o2, %gdop_lox10(.LLC0), %o2
	xor	%o3, %gdop_lox10(.LLC5), %o3
	xor	%o5, %gdop_lox10(.LLC3), %o5
	add	%sp, 120, %i5
.LLVL479:
	ld	[%l7 + %o2], %o2, %gdop(.LLC0)
	st	%g1, [%sp+104]
	mov	256, %o1
	mov	%i5, %o0
.LLVL480:
	ld	[%fp-4], %g1
	mov	%g3, %o4
	ld	[%l7 + %o3], %o3, %gdop(.LLC5)
	ld	[%l7 + %o5], %o5, %gdop(.LLC3)
	st	%g2, [%sp+92]
	st	%g3, [%sp+100]
	call	snprintf, 0
	 st	%g1, [%sp+108]
.LLVL481:
	sethi	%gdop_hix22(.LLC4), %o1
	mov	%i5, %o0
	xor	%o1, %gdop_lox10(.LLC4), %o1
	mov	141, %o2
	call	__assert, 0
	 ld	[%l7 + %o1], %o1, %gdop(.LLC4)
.LL315:
	return	%i7+8
	 nop
.LLVL482:
.LL313:
.LLBE274:
.LLBE275:
.LLBB276:
.LLBB271:
	.loc 1 141 0 discriminator 1
	add	%sp, -264, %sp
	stx	%g0, [%fp-8]
	sethi	%gdop_hix22(.LLC2), %g3
	st	%g1, [%sp+96]
	sethi	%gdop_hix22(.LLC0), %o2
	xor	%g3, %gdop_lox10(.LLC2), %g3
	ld	[%fp-8], %g1
.LLVL483:
	sethi	%gdop_hix22(.LLC1), %o3
	sethi	%gdop_hix22(.LLC3), %o5
	ld	[%l7 + %g3], %g3, %gdop(.LLC2)
	xor	%o2, %gdop_lox10(.LLC0), %o2
	xor	%o3, %gdop_lox10(.LLC1), %o3
	xor	%o5, %gdop_lox10(.LLC3), %o5
	add	%sp, 120, %i4
.LLVL484:
	ld	[%l7 + %o2], %o2, %gdop(.LLC0)
	st	%g1, [%sp+104]
	mov	256, %o1
	mov	%i4, %o0
.LLVL485:
	ld	[%fp-4], %g1
	mov	%g3, %o4
	ld	[%l7 + %o3], %o3, %gdop(.LLC1)
	ld	[%l7 + %o5], %o5, %gdop(.LLC3)
	st	%g2, [%sp+92]
	st	%g3, [%sp+100]
	call	snprintf, 0
	 st	%g1, [%sp+108]
.LLVL486:
	sethi	%gdop_hix22(.LLC4), %o1
	mov	%i4, %o0
	xor	%o1, %gdop_lox10(.LLC4), %o1
	mov	141, %o2
	call	__assert, 0
	 ld	[%l7 + %o1], %o1, %gdop(.LLC4)
	ba,pt	%xcc, .LL309
	 nop
.LLBE271:
.LLBE276:
	.cfi_endproc
.LLFE63:
	.size	atomic_or_16, .-atomic_or_16
	.align 4
	.align 32
	.global atomic_or_ushort
	.type	atomic_or_ushort, #function
	.proc	020
atomic_or_ushort:
.LLFB64:
	.loc 1 142 0 is_stmt 1
	.cfi_startproc
.LLVL487:
	save	%sp, -128, %sp
.LLCFI39:
	.cfi_def_cfa_register 30
	.cfi_window_save
	.cfi_register 15, 31
.LLBB277:
	sethi	%gdop_hix22(atomic_lock), %i5
.LLBE277:
	sethi	%hi(_GLOBAL_OFFSET_TABLE_-4), %l7
	call	__sparc_get_pc_thunk.l7
	 add	%l7, %lo(_GLOBAL_OFFSET_TABLE_+4), %l7
.LLBB279:
	.loc 1 142 0
	xor	%i5, %gdop_lox10(atomic_lock), %i5
	ld	[%l7 + %i5], %i5, %gdop(atomic_lock)
	call	pthread_mutex_lock, 0
	 mov	%i5, %o0
	sra	%o0, 31, %g2
.LLVL488:
	orcc	%g2, %o0, %g0
	bne,pn	%icc, .LL321
	 mov	%o0, %g1
.LLVL489:
.LL317:
.LLBE279:
	.loc 1 142 0 is_stmt 0 discriminator 2
	lduh	[%i0], %g1
.LLBB280:
	mov	%i5, %o0
.LLBE280:
	or	%i1, %g1, %i1
.LLVL490:
	sth	%i1, [%i0]
.LLBB282:
	call	pthread_mutex_unlock, 0
	 nop
	sra	%o0, 31, %g2
.LLVL491:
	orcc	%g2, %o0, %g0
	be,pt	%icc, .LL323
	 mov	%o0, %g1
.LLBB281:
	.loc 1 142 0 discriminator 3
	add	%sp, -264, %sp
	stx	%g0, [%fp-8]
	sethi	%gdop_hix22(.LLC2), %g3
	st	%g1, [%sp+96]
	sethi	%gdop_hix22(.LLC0), %o2
	xor	%g3, %gdop_lox10(.LLC2), %g3
	ld	[%fp-8], %g1
	sethi	%gdop_hix22(.LLC5), %o3
	sethi	%gdop_hix22(.LLC3), %o5
	ld	[%l7 + %g3], %g3, %gdop(.LLC2)
	xor	%o2, %gdop_lox10(.LLC0), %o2
	xor	%o3, %gdop_lox10(.LLC5), %o3
	xor	%o5, %gdop_lox10(.LLC3), %o5
	add	%sp, 120, %i5
.LLVL492:
	ld	[%l7 + %o2], %o2, %gdop(.LLC0)
	st	%g1, [%sp+104]
	mov	256, %o1
	mov	%i5, %o0
.LLVL493:
	ld	[%fp-4], %g1
	mov	%g3, %o4
	ld	[%l7 + %o3], %o3, %gdop(.LLC5)
	ld	[%l7 + %o5], %o5, %gdop(.LLC3)
	st	%g2, [%sp+92]
	st	%g3, [%sp+100]
	call	snprintf, 0
	 st	%g1, [%sp+108]
.LLVL494:
	sethi	%gdop_hix22(.LLC4), %o1
	mov	%i5, %o0
	xor	%o1, %gdop_lox10(.LLC4), %o1
	mov	142, %o2
	call	__assert, 0
	 ld	[%l7 + %o1], %o1, %gdop(.LLC4)
.LL323:
	return	%i7+8
	 nop
.LLVL495:
.LL321:
.LLBE281:
.LLBE282:
.LLBB283:
.LLBB278:
	.loc 1 142 0 discriminator 1
	add	%sp, -264, %sp
	stx	%g0, [%fp-8]
	sethi	%gdop_hix22(.LLC2), %g3
	st	%g1, [%sp+96]
	sethi	%gdop_hix22(.LLC0), %o2
	xor	%g3, %gdop_lox10(.LLC2), %g3
	ld	[%fp-8], %g1
.LLVL496:
	sethi	%gdop_hix22(.LLC1), %o3
	sethi	%gdop_hix22(.LLC3), %o5
	ld	[%l7 + %g3], %g3, %gdop(.LLC2)
	xor	%o2, %gdop_lox10(.LLC0), %o2
	xor	%o3, %gdop_lox10(.LLC1), %o3
	xor	%o5, %gdop_lox10(.LLC3), %o5
	add	%sp, 120, %i4
.LLVL497:
	ld	[%l7 + %o2], %o2, %gdop(.LLC0)
	st	%g1, [%sp+104]
	mov	256, %o1
	mov	%i4, %o0
.LLVL498:
	ld	[%fp-4], %g1
	mov	%g3, %o4
	ld	[%l7 + %o3], %o3, %gdop(.LLC1)
	ld	[%l7 + %o5], %o5, %gdop(.LLC3)
	st	%g2, [%sp+92]
	st	%g3, [%sp+100]
	call	snprintf, 0
	 st	%g1, [%sp+108]
.LLVL499:
	sethi	%gdop_hix22(.LLC4), %o1
	mov	%i4, %o0
	xor	%o1, %gdop_lox10(.LLC4), %o1
	mov	142, %o2
	call	__assert, 0
	 ld	[%l7 + %o1], %o1, %gdop(.LLC4)
	ba,pt	%xcc, .LL317
	 nop
.LLBE278:
.LLBE283:
	.cfi_endproc
.LLFE64:
	.size	atomic_or_ushort, .-atomic_or_ushort
	.align 4
	.align 32
	.global atomic_or_32
	.type	atomic_or_32, #function
	.proc	020
atomic_or_32:
.LLFB65:
	.loc 1 143 0 is_stmt 1
	.cfi_startproc
.LLVL500:
	save	%sp, -128, %sp
.LLCFI40:
	.cfi_def_cfa_register 30
	.cfi_window_save
	.cfi_register 15, 31
.LLBB284:
	sethi	%gdop_hix22(atomic_lock), %i5
.LLBE284:
	sethi	%hi(_GLOBAL_OFFSET_TABLE_-4), %l7
	call	__sparc_get_pc_thunk.l7
	 add	%l7, %lo(_GLOBAL_OFFSET_TABLE_+4), %l7
.LLBB286:
	.loc 1 143 0
	xor	%i5, %gdop_lox10(atomic_lock), %i5
	ld	[%l7 + %i5], %i5, %gdop(atomic_lock)
	call	pthread_mutex_lock, 0
	 mov	%i5, %o0
	sra	%o0, 31, %g2
.LLVL501:
	orcc	%g2, %o0, %g0
	bne,pn	%icc, .LL329
	 mov	%o0, %g1
.LLVL502:
.LL325:
.LLBE286:
	.loc 1 143 0 is_stmt 0 discriminator 2
	ld	[%i0], %g1
.LLBB287:
	mov	%i5, %o0
.LLBE287:
	or	%i1, %g1, %i1
.LLVL503:
	st	%i1, [%i0]
.LLBB289:
	call	pthread_mutex_unlock, 0
	 nop
	sra	%o0, 31, %g2
.LLVL504:
	orcc	%g2, %o0, %g0
	be,pt	%icc, .LL331
	 mov	%o0, %g1
.LLBB288:
	.loc 1 143 0 discriminator 3
	add	%sp, -264, %sp
	stx	%g0, [%fp-8]
	sethi	%gdop_hix22(.LLC2), %g3
	st	%g1, [%sp+96]
	sethi	%gdop_hix22(.LLC0), %o2
	xor	%g3, %gdop_lox10(.LLC2), %g3
	ld	[%fp-8], %g1
	sethi	%gdop_hix22(.LLC5), %o3
	sethi	%gdop_hix22(.LLC3), %o5
	ld	[%l7 + %g3], %g3, %gdop(.LLC2)
	xor	%o2, %gdop_lox10(.LLC0), %o2
	xor	%o3, %gdop_lox10(.LLC5), %o3
	xor	%o5, %gdop_lox10(.LLC3), %o5
	add	%sp, 120, %i5
.LLVL505:
	ld	[%l7 + %o2], %o2, %gdop(.LLC0)
	st	%g1, [%sp+104]
	mov	256, %o1
	mov	%i5, %o0
.LLVL506:
	ld	[%fp-4], %g1
	mov	%g3, %o4
	ld	[%l7 + %o3], %o3, %gdop(.LLC5)
	ld	[%l7 + %o5], %o5, %gdop(.LLC3)
	st	%g2, [%sp+92]
	st	%g3, [%sp+100]
	call	snprintf, 0
	 st	%g1, [%sp+108]
.LLVL507:
	sethi	%gdop_hix22(.LLC4), %o1
	mov	%i5, %o0
	xor	%o1, %gdop_lox10(.LLC4), %o1
	mov	143, %o2
	call	__assert, 0
	 ld	[%l7 + %o1], %o1, %gdop(.LLC4)
.LL331:
	return	%i7+8
	 nop
.LLVL508:
.LL329:
.LLBE288:
.LLBE289:
.LLBB290:
.LLBB285:
	.loc 1 143 0 discriminator 1
	add	%sp, -264, %sp
	stx	%g0, [%fp-8]
	sethi	%gdop_hix22(.LLC2), %g3
	st	%g1, [%sp+96]
	sethi	%gdop_hix22(.LLC0), %o2
	xor	%g3, %gdop_lox10(.LLC2), %g3
	ld	[%fp-8], %g1
.LLVL509:
	sethi	%gdop_hix22(.LLC1), %o3
	sethi	%gdop_hix22(.LLC3), %o5
	ld	[%l7 + %g3], %g3, %gdop(.LLC2)
	xor	%o2, %gdop_lox10(.LLC0), %o2
	xor	%o3, %gdop_lox10(.LLC1), %o3
	xor	%o5, %gdop_lox10(.LLC3), %o5
	add	%sp, 120, %i4
.LLVL510:
	ld	[%l7 + %o2], %o2, %gdop(.LLC0)
	st	%g1, [%sp+104]
	mov	256, %o1
	mov	%i4, %o0
.LLVL511:
	ld	[%fp-4], %g1
	mov	%g3, %o4
	ld	[%l7 + %o3], %o3, %gdop(.LLC1)
	ld	[%l7 + %o5], %o5, %gdop(.LLC3)
	st	%g2, [%sp+92]
	st	%g3, [%sp+100]
	call	snprintf, 0
	 st	%g1, [%sp+108]
.LLVL512:
	sethi	%gdop_hix22(.LLC4), %o1
	mov	%i4, %o0
	xor	%o1, %gdop_lox10(.LLC4), %o1
	mov	143, %o2
	call	__assert, 0
	 ld	[%l7 + %o1], %o1, %gdop(.LLC4)
	ba,pt	%xcc, .LL325
	 nop
.LLBE285:
.LLBE290:
	.cfi_endproc
.LLFE65:
	.size	atomic_or_32, .-atomic_or_32
	.align 4
	.align 32
	.global atomic_or_uint
	.type	atomic_or_uint, #function
	.proc	020
atomic_or_uint:
.LLFB66:
	.loc 1 144 0 is_stmt 1
	.cfi_startproc
.LLVL513:
	save	%sp, -128, %sp
.LLCFI41:
	.cfi_def_cfa_register 30
	.cfi_window_save
	.cfi_register 15, 31
.LLBB291:
	sethi	%gdop_hix22(atomic_lock), %i5
.LLBE291:
	sethi	%hi(_GLOBAL_OFFSET_TABLE_-4), %l7
	call	__sparc_get_pc_thunk.l7
	 add	%l7, %lo(_GLOBAL_OFFSET_TABLE_+4), %l7
.LLBB293:
	.loc 1 144 0
	xor	%i5, %gdop_lox10(atomic_lock), %i5
	ld	[%l7 + %i5], %i5, %gdop(atomic_lock)
	call	pthread_mutex_lock, 0
	 mov	%i5, %o0
	sra	%o0, 31, %g2
.LLVL514:
	orcc	%g2, %o0, %g0
	bne,pn	%icc, .LL337
	 mov	%o0, %g1
.LLVL515:
.LL333:
.LLBE293:
	.loc 1 144 0 is_stmt 0 discriminator 2
	ld	[%i0], %g1
.LLBB294:
	mov	%i5, %o0
.LLBE294:
	or	%i1, %g1, %i1
.LLVL516:
	st	%i1, [%i0]
.LLBB296:
	call	pthread_mutex_unlock, 0
	 nop
	sra	%o0, 31, %g2
.LLVL517:
	orcc	%g2, %o0, %g0
	be,pt	%icc, .LL339
	 mov	%o0, %g1
.LLBB295:
	.loc 1 144 0 discriminator 3
	add	%sp, -264, %sp
	stx	%g0, [%fp-8]
	sethi	%gdop_hix22(.LLC2), %g3
	st	%g1, [%sp+96]
	sethi	%gdop_hix22(.LLC0), %o2
	xor	%g3, %gdop_lox10(.LLC2), %g3
	ld	[%fp-8], %g1
	sethi	%gdop_hix22(.LLC5), %o3
	sethi	%gdop_hix22(.LLC3), %o5
	ld	[%l7 + %g3], %g3, %gdop(.LLC2)
	xor	%o2, %gdop_lox10(.LLC0), %o2
	xor	%o3, %gdop_lox10(.LLC5), %o3
	xor	%o5, %gdop_lox10(.LLC3), %o5
	add	%sp, 120, %i5
.LLVL518:
	ld	[%l7 + %o2], %o2, %gdop(.LLC0)
	st	%g1, [%sp+104]
	mov	256, %o1
	mov	%i5, %o0
.LLVL519:
	ld	[%fp-4], %g1
	mov	%g3, %o4
	ld	[%l7 + %o3], %o3, %gdop(.LLC5)
	ld	[%l7 + %o5], %o5, %gdop(.LLC3)
	st	%g2, [%sp+92]
	st	%g3, [%sp+100]
	call	snprintf, 0
	 st	%g1, [%sp+108]
.LLVL520:
	sethi	%gdop_hix22(.LLC4), %o1
	mov	%i5, %o0
	xor	%o1, %gdop_lox10(.LLC4), %o1
	mov	144, %o2
	call	__assert, 0
	 ld	[%l7 + %o1], %o1, %gdop(.LLC4)
.LL339:
	return	%i7+8
	 nop
.LLVL521:
.LL337:
.LLBE295:
.LLBE296:
.LLBB297:
.LLBB292:
	.loc 1 144 0 discriminator 1
	add	%sp, -264, %sp
	stx	%g0, [%fp-8]
	sethi	%gdop_hix22(.LLC2), %g3
	st	%g1, [%sp+96]
	sethi	%gdop_hix22(.LLC0), %o2
	xor	%g3, %gdop_lox10(.LLC2), %g3
	ld	[%fp-8], %g1
.LLVL522:
	sethi	%gdop_hix22(.LLC1), %o3
	sethi	%gdop_hix22(.LLC3), %o5
	ld	[%l7 + %g3], %g3, %gdop(.LLC2)
	xor	%o2, %gdop_lox10(.LLC0), %o2
	xor	%o3, %gdop_lox10(.LLC1), %o3
	xor	%o5, %gdop_lox10(.LLC3), %o5
	add	%sp, 120, %i4
.LLVL523:
	ld	[%l7 + %o2], %o2, %gdop(.LLC0)
	st	%g1, [%sp+104]
	mov	256, %o1
	mov	%i4, %o0
.LLVL524:
	ld	[%fp-4], %g1
	mov	%g3, %o4
	ld	[%l7 + %o3], %o3, %gdop(.LLC1)
	ld	[%l7 + %o5], %o5, %gdop(.LLC3)
	st	%g2, [%sp+92]
	st	%g3, [%sp+100]
	call	snprintf, 0
	 st	%g1, [%sp+108]
.LLVL525:
	sethi	%gdop_hix22(.LLC4), %o1
	mov	%i4, %o0
	xor	%o1, %gdop_lox10(.LLC4), %o1
	mov	144, %o2
	call	__assert, 0
	 ld	[%l7 + %o1], %o1, %gdop(.LLC4)
	ba,pt	%xcc, .LL333
	 nop
.LLBE292:
.LLBE297:
	.cfi_endproc
.LLFE66:
	.size	atomic_or_uint, .-atomic_or_uint
	.align 4
	.align 32
	.global atomic_or_ulong
	.type	atomic_or_ulong, #function
	.proc	020
atomic_or_ulong:
.LLFB67:
	.loc 1 145 0 is_stmt 1
	.cfi_startproc
.LLVL526:
	save	%sp, -128, %sp
.LLCFI42:
	.cfi_def_cfa_register 30
	.cfi_window_save
	.cfi_register 15, 31
.LLBB298:
	sethi	%gdop_hix22(atomic_lock), %i5
.LLBE298:
	sethi	%hi(_GLOBAL_OFFSET_TABLE_-4), %l7
	call	__sparc_get_pc_thunk.l7
	 add	%l7, %lo(_GLOBAL_OFFSET_TABLE_+4), %l7
.LLBB300:
	.loc 1 145 0
	xor	%i5, %gdop_lox10(atomic_lock), %i5
	ld	[%l7 + %i5], %i5, %gdop(atomic_lock)
	call	pthread_mutex_lock, 0
	 mov	%i5, %o0
	sra	%o0, 31, %g2
.LLVL527:
	orcc	%g2, %o0, %g0
	bne,pn	%icc, .LL345
	 mov	%o0, %g1
.LLVL528:
.LL341:
.LLBE300:
	.loc 1 145 0 is_stmt 0 discriminator 2
	ld	[%i0], %g1
.LLBB301:
	mov	%i5, %o0
.LLBE301:
	or	%i1, %g1, %i1
.LLVL529:
	st	%i1, [%i0]
.LLBB303:
	call	pthread_mutex_unlock, 0
	 nop
	sra	%o0, 31, %g2
.LLVL530:
	orcc	%g2, %o0, %g0
	be,pt	%icc, .LL347
	 mov	%o0, %g1
.LLBB302:
	.loc 1 145 0 discriminator 3
	add	%sp, -264, %sp
	stx	%g0, [%fp-8]
	sethi	%gdop_hix22(.LLC2), %g3
	st	%g1, [%sp+96]
	sethi	%gdop_hix22(.LLC0), %o2
	xor	%g3, %gdop_lox10(.LLC2), %g3
	ld	[%fp-8], %g1
	sethi	%gdop_hix22(.LLC5), %o3
	sethi	%gdop_hix22(.LLC3), %o5
	ld	[%l7 + %g3], %g3, %gdop(.LLC2)
	xor	%o2, %gdop_lox10(.LLC0), %o2
	xor	%o3, %gdop_lox10(.LLC5), %o3
	xor	%o5, %gdop_lox10(.LLC3), %o5
	add	%sp, 120, %i5
.LLVL531:
	ld	[%l7 + %o2], %o2, %gdop(.LLC0)
	st	%g1, [%sp+104]
	mov	256, %o1
	mov	%i5, %o0
.LLVL532:
	ld	[%fp-4], %g1
	mov	%g3, %o4
	ld	[%l7 + %o3], %o3, %gdop(.LLC5)
	ld	[%l7 + %o5], %o5, %gdop(.LLC3)
	st	%g2, [%sp+92]
	st	%g3, [%sp+100]
	call	snprintf, 0
	 st	%g1, [%sp+108]
.LLVL533:
	sethi	%gdop_hix22(.LLC4), %o1
	mov	%i5, %o0
	xor	%o1, %gdop_lox10(.LLC4), %o1
	mov	145, %o2
	call	__assert, 0
	 ld	[%l7 + %o1], %o1, %gdop(.LLC4)
.LL347:
	return	%i7+8
	 nop
.LLVL534:
.LL345:
.LLBE302:
.LLBE303:
.LLBB304:
.LLBB299:
	.loc 1 145 0 discriminator 1
	add	%sp, -264, %sp
	stx	%g0, [%fp-8]
	sethi	%gdop_hix22(.LLC2), %g3
	st	%g1, [%sp+96]
	sethi	%gdop_hix22(.LLC0), %o2
	xor	%g3, %gdop_lox10(.LLC2), %g3
	ld	[%fp-8], %g1
.LLVL535:
	sethi	%gdop_hix22(.LLC1), %o3
	sethi	%gdop_hix22(.LLC3), %o5
	ld	[%l7 + %g3], %g3, %gdop(.LLC2)
	xor	%o2, %gdop_lox10(.LLC0), %o2
	xor	%o3, %gdop_lox10(.LLC1), %o3
	xor	%o5, %gdop_lox10(.LLC3), %o5
	add	%sp, 120, %i4
.LLVL536:
	ld	[%l7 + %o2], %o2, %gdop(.LLC0)
	st	%g1, [%sp+104]
	mov	256, %o1
	mov	%i4, %o0
.LLVL537:
	ld	[%fp-4], %g1
	mov	%g3, %o4
	ld	[%l7 + %o3], %o3, %gdop(.LLC1)
	ld	[%l7 + %o5], %o5, %gdop(.LLC3)
	st	%g2, [%sp+92]
	st	%g3, [%sp+100]
	call	snprintf, 0
	 st	%g1, [%sp+108]
.LLVL538:
	sethi	%gdop_hix22(.LLC4), %o1
	mov	%i4, %o0
	xor	%o1, %gdop_lox10(.LLC4), %o1
	mov	145, %o2
	call	__assert, 0
	 ld	[%l7 + %o1], %o1, %gdop(.LLC4)
	ba,pt	%xcc, .LL341
	 nop
.LLBE299:
.LLBE304:
	.cfi_endproc
.LLFE67:
	.size	atomic_or_ulong, .-atomic_or_ulong
	.align 4
	.align 32
	.global atomic_or_64
	.type	atomic_or_64, #function
	.proc	020
atomic_or_64:
.LLFB68:
	.loc 1 146 0 is_stmt 1
	.cfi_startproc
.LLVL539:
	save	%sp, -128, %sp
.LLCFI43:
	.cfi_def_cfa_register 30
	.cfi_window_save
	.cfi_register 15, 31
.LLBB305:
	sethi	%gdop_hix22(atomic_lock), %i3
.LLBE305:
	mov	%i1, %i4
	sethi	%hi(_GLOBAL_OFFSET_TABLE_-4), %l7
	call	__sparc_get_pc_thunk.l7
	 add	%l7, %lo(_GLOBAL_OFFSET_TABLE_+4), %l7
.LLBB307:
	.loc 1 146 0
	xor	%i3, %gdop_lox10(atomic_lock), %i3
.LLBE307:
	mov	%i2, %i5
.LLBB308:
	ld	[%l7 + %i3], %i3, %gdop(atomic_lock)
	call	pthread_mutex_lock, 0
	 mov	%i3, %o0
	sra	%o0, 31, %g2
.LLVL540:
	orcc	%g2, %o0, %g0
	bne,pn	%icc, .LL353
	 mov	%o0, %g1
.LLVL541:
.LL349:
.LLBE308:
	.loc 1 146 0 is_stmt 0 discriminator 2
	ldd	[%i0], %g2
.LLBB309:
	mov	%i3, %o0
.LLBE309:
	or	%i4, %g2, %i4
	or	%i5, %g3, %i5
	std	%i4, [%i0]
.LLBB311:
	call	pthread_mutex_unlock, 0
	 nop
	sra	%o0, 31, %g2
.LLVL542:
	orcc	%g2, %o0, %g0
	be,pt	%icc, .LL355
	 mov	%o0, %g1
.LLBB310:
	.loc 1 146 0 discriminator 3
	add	%sp, -264, %sp
	stx	%g0, [%fp-8]
	sethi	%gdop_hix22(.LLC2), %g3
	st	%g1, [%sp+96]
	sethi	%gdop_hix22(.LLC0), %o2
	xor	%g3, %gdop_lox10(.LLC2), %g3
	ld	[%fp-8], %g1
	sethi	%gdop_hix22(.LLC5), %o3
	sethi	%gdop_hix22(.LLC3), %o5
	ld	[%l7 + %g3], %g3, %gdop(.LLC2)
	xor	%o2, %gdop_lox10(.LLC0), %o2
	xor	%o3, %gdop_lox10(.LLC5), %o3
	xor	%o5, %gdop_lox10(.LLC3), %o5
	add	%sp, 120, %i4
.LLVL543:
	ld	[%l7 + %o2], %o2, %gdop(.LLC0)
	st	%g1, [%sp+104]
	mov	256, %o1
	mov	%i4, %o0
.LLVL544:
	ld	[%fp-4], %g1
	mov	%g3, %o4
	ld	[%l7 + %o3], %o3, %gdop(.LLC5)
	ld	[%l7 + %o5], %o5, %gdop(.LLC3)
	st	%g2, [%sp+92]
	st	%g3, [%sp+100]
	call	snprintf, 0
	 st	%g1, [%sp+108]
.LLVL545:
	sethi	%gdop_hix22(.LLC4), %o1
	mov	%i4, %o0
	xor	%o1, %gdop_lox10(.LLC4), %o1
	mov	146, %o2
	call	__assert, 0
	 ld	[%l7 + %o1], %o1, %gdop(.LLC4)
.LL355:
	return	%i7+8
	 nop
.LLVL546:
.LL353:
.LLBE310:
.LLBE311:
.LLBB312:
.LLBB306:
	.loc 1 146 0 discriminator 1
	add	%sp, -264, %sp
	stx	%g0, [%fp-8]
	sethi	%gdop_hix22(.LLC2), %g3
	st	%g1, [%sp+96]
	sethi	%gdop_hix22(.LLC0), %o2
	xor	%g3, %gdop_lox10(.LLC2), %g3
	ld	[%fp-8], %g1
.LLVL547:
	sethi	%gdop_hix22(.LLC1), %o3
	sethi	%gdop_hix22(.LLC3), %o5
	ld	[%l7 + %g3], %g3, %gdop(.LLC2)
	xor	%o2, %gdop_lox10(.LLC0), %o2
	xor	%o3, %gdop_lox10(.LLC1), %o3
	xor	%o5, %gdop_lox10(.LLC3), %o5
	add	%sp, 120, %i2
.LLVL548:
	ld	[%l7 + %o2], %o2, %gdop(.LLC0)
	st	%g1, [%sp+104]
	mov	256, %o1
	mov	%i2, %o0
.LLVL549:
	ld	[%fp-4], %g1
	mov	%g3, %o4
	ld	[%l7 + %o3], %o3, %gdop(.LLC1)
	ld	[%l7 + %o5], %o5, %gdop(.LLC3)
	st	%g2, [%sp+92]
	st	%g3, [%sp+100]
	call	snprintf, 0
	 st	%g1, [%sp+108]
.LLVL550:
	sethi	%gdop_hix22(.LLC4), %o1
	mov	%i2, %o0
	xor	%o1, %gdop_lox10(.LLC4), %o1
	mov	146, %o2
	call	__assert, 0
	 ld	[%l7 + %o1], %o1, %gdop(.LLC4)
	ba,pt	%xcc, .LL349
	 nop
.LLBE306:
.LLBE312:
	.cfi_endproc
.LLFE68:
	.size	atomic_or_64, .-atomic_or_64
	.align 4
	.align 32
	.global atomic_and_8
	.type	atomic_and_8, #function
	.proc	020
atomic_and_8:
.LLFB69:
	.loc 1 157 0 is_stmt 1
	.cfi_startproc
.LLVL551:
	save	%sp, -128, %sp
.LLCFI44:
	.cfi_def_cfa_register 30
	.cfi_window_save
	.cfi_register 15, 31
.LLBB313:
	sethi	%gdop_hix22(atomic_lock), %i5
.LLBE313:
	sethi	%hi(_GLOBAL_OFFSET_TABLE_-4), %l7
	call	__sparc_get_pc_thunk.l7
	 add	%l7, %lo(_GLOBAL_OFFSET_TABLE_+4), %l7
.LLBB315:
	.loc 1 157 0
	xor	%i5, %gdop_lox10(atomic_lock), %i5
	ld	[%l7 + %i5], %i5, %gdop(atomic_lock)
	call	pthread_mutex_lock, 0
	 mov	%i5, %o0
	sra	%o0, 31, %g2
.LLVL552:
	orcc	%g2, %o0, %g0
	bne,pn	%icc, .LL361
	 mov	%o0, %g1
.LLVL553:
.LL357:
.LLBE315:
	.loc 1 157 0 is_stmt 0 discriminator 2
	ldub	[%i0], %g1
.LLBB316:
	mov	%i5, %o0
.LLBE316:
	and	%i1, %g1, %i1
.LLVL554:
	stb	%i1, [%i0]
.LLBB318:
	call	pthread_mutex_unlock, 0
	 nop
	sra	%o0, 31, %g2
.LLVL555:
	orcc	%g2, %o0, %g0
	be,pt	%icc, .LL363
	 mov	%o0, %g1
.LLBB317:
	.loc 1 157 0 discriminator 3
	add	%sp, -264, %sp
	stx	%g0, [%fp-8]
	sethi	%gdop_hix22(.LLC2), %g3
	st	%g1, [%sp+96]
	sethi	%gdop_hix22(.LLC0), %o2
	xor	%g3, %gdop_lox10(.LLC2), %g3
	ld	[%fp-8], %g1
	sethi	%gdop_hix22(.LLC5), %o3
	sethi	%gdop_hix22(.LLC3), %o5
	ld	[%l7 + %g3], %g3, %gdop(.LLC2)
	xor	%o2, %gdop_lox10(.LLC0), %o2
	xor	%o3, %gdop_lox10(.LLC5), %o3
	xor	%o5, %gdop_lox10(.LLC3), %o5
	add	%sp, 120, %i5
.LLVL556:
	ld	[%l7 + %o2], %o2, %gdop(.LLC0)
	st	%g1, [%sp+104]
	mov	256, %o1
	mov	%i5, %o0
.LLVL557:
	ld	[%fp-4], %g1
	mov	%g3, %o4
	ld	[%l7 + %o3], %o3, %gdop(.LLC5)
	ld	[%l7 + %o5], %o5, %gdop(.LLC3)
	st	%g2, [%sp+92]
	st	%g3, [%sp+100]
	call	snprintf, 0
	 st	%g1, [%sp+108]
.LLVL558:
	sethi	%gdop_hix22(.LLC4), %o1
	mov	%i5, %o0
	xor	%o1, %gdop_lox10(.LLC4), %o1
	mov	157, %o2
	call	__assert, 0
	 ld	[%l7 + %o1], %o1, %gdop(.LLC4)
.LL363:
	return	%i7+8
	 nop
.LLVL559:
.LL361:
.LLBE317:
.LLBE318:
.LLBB319:
.LLBB314:
	.loc 1 157 0 discriminator 1
	add	%sp, -264, %sp
	stx	%g0, [%fp-8]
	sethi	%gdop_hix22(.LLC2), %g3
	st	%g1, [%sp+96]
	sethi	%gdop_hix22(.LLC0), %o2
	xor	%g3, %gdop_lox10(.LLC2), %g3
	ld	[%fp-8], %g1
.LLVL560:
	sethi	%gdop_hix22(.LLC1), %o3
	sethi	%gdop_hix22(.LLC3), %o5
	ld	[%l7 + %g3], %g3, %gdop(.LLC2)
	xor	%o2, %gdop_lox10(.LLC0), %o2
	xor	%o3, %gdop_lox10(.LLC1), %o3
	xor	%o5, %gdop_lox10(.LLC3), %o5
	add	%sp, 120, %i4
.LLVL561:
	ld	[%l7 + %o2], %o2, %gdop(.LLC0)
	st	%g1, [%sp+104]
	mov	256, %o1
	mov	%i4, %o0
.LLVL562:
	ld	[%fp-4], %g1
	mov	%g3, %o4
	ld	[%l7 + %o3], %o3, %gdop(.LLC1)
	ld	[%l7 + %o5], %o5, %gdop(.LLC3)
	st	%g2, [%sp+92]
	st	%g3, [%sp+100]
	call	snprintf, 0
	 st	%g1, [%sp+108]
.LLVL563:
	sethi	%gdop_hix22(.LLC4), %o1
	mov	%i4, %o0
	xor	%o1, %gdop_lox10(.LLC4), %o1
	mov	157, %o2
	call	__assert, 0
	 ld	[%l7 + %o1], %o1, %gdop(.LLC4)
	ba,pt	%xcc, .LL357
	 nop
.LLBE314:
.LLBE319:
	.cfi_endproc
.LLFE69:
	.size	atomic_and_8, .-atomic_and_8
	.align 4
	.align 32
	.global atomic_and_uchar
	.type	atomic_and_uchar, #function
	.proc	020
atomic_and_uchar:
.LLFB70:
	.loc 1 158 0 is_stmt 1
	.cfi_startproc
.LLVL564:
	save	%sp, -128, %sp
.LLCFI45:
	.cfi_def_cfa_register 30
	.cfi_window_save
	.cfi_register 15, 31
.LLBB320:
	sethi	%gdop_hix22(atomic_lock), %i5
.LLBE320:
	sethi	%hi(_GLOBAL_OFFSET_TABLE_-4), %l7
	call	__sparc_get_pc_thunk.l7
	 add	%l7, %lo(_GLOBAL_OFFSET_TABLE_+4), %l7
.LLBB322:
	.loc 1 158 0
	xor	%i5, %gdop_lox10(atomic_lock), %i5
	ld	[%l7 + %i5], %i5, %gdop(atomic_lock)
	call	pthread_mutex_lock, 0
	 mov	%i5, %o0
	sra	%o0, 31, %g2
.LLVL565:
	orcc	%g2, %o0, %g0
	bne,pn	%icc, .LL369
	 mov	%o0, %g1
.LLVL566:
.LL365:
.LLBE322:
	.loc 1 158 0 is_stmt 0 discriminator 2
	ldub	[%i0], %g1
.LLBB323:
	mov	%i5, %o0
.LLBE323:
	and	%i1, %g1, %i1
.LLVL567:
	stb	%i1, [%i0]
.LLBB325:
	call	pthread_mutex_unlock, 0
	 nop
	sra	%o0, 31, %g2
.LLVL568:
	orcc	%g2, %o0, %g0
	be,pt	%icc, .LL371
	 mov	%o0, %g1
.LLBB324:
	.loc 1 158 0 discriminator 3
	add	%sp, -264, %sp
	stx	%g0, [%fp-8]
	sethi	%gdop_hix22(.LLC2), %g3
	st	%g1, [%sp+96]
	sethi	%gdop_hix22(.LLC0), %o2
	xor	%g3, %gdop_lox10(.LLC2), %g3
	ld	[%fp-8], %g1
	sethi	%gdop_hix22(.LLC5), %o3
	sethi	%gdop_hix22(.LLC3), %o5
	ld	[%l7 + %g3], %g3, %gdop(.LLC2)
	xor	%o2, %gdop_lox10(.LLC0), %o2
	xor	%o3, %gdop_lox10(.LLC5), %o3
	xor	%o5, %gdop_lox10(.LLC3), %o5
	add	%sp, 120, %i5
.LLVL569:
	ld	[%l7 + %o2], %o2, %gdop(.LLC0)
	st	%g1, [%sp+104]
	mov	256, %o1
	mov	%i5, %o0
.LLVL570:
	ld	[%fp-4], %g1
	mov	%g3, %o4
	ld	[%l7 + %o3], %o3, %gdop(.LLC5)
	ld	[%l7 + %o5], %o5, %gdop(.LLC3)
	st	%g2, [%sp+92]
	st	%g3, [%sp+100]
	call	snprintf, 0
	 st	%g1, [%sp+108]
.LLVL571:
	sethi	%gdop_hix22(.LLC4), %o1
	mov	%i5, %o0
	xor	%o1, %gdop_lox10(.LLC4), %o1
	mov	158, %o2
	call	__assert, 0
	 ld	[%l7 + %o1], %o1, %gdop(.LLC4)
.LL371:
	return	%i7+8
	 nop
.LLVL572:
.LL369:
.LLBE324:
.LLBE325:
.LLBB326:
.LLBB321:
	.loc 1 158 0 discriminator 1
	add	%sp, -264, %sp
	stx	%g0, [%fp-8]
	sethi	%gdop_hix22(.LLC2), %g3
	st	%g1, [%sp+96]
	sethi	%gdop_hix22(.LLC0), %o2
	xor	%g3, %gdop_lox10(.LLC2), %g3
	ld	[%fp-8], %g1
.LLVL573:
	sethi	%gdop_hix22(.LLC1), %o3
	sethi	%gdop_hix22(.LLC3), %o5
	ld	[%l7 + %g3], %g3, %gdop(.LLC2)
	xor	%o2, %gdop_lox10(.LLC0), %o2
	xor	%o3, %gdop_lox10(.LLC1), %o3
	xor	%o5, %gdop_lox10(.LLC3), %o5
	add	%sp, 120, %i4
.LLVL574:
	ld	[%l7 + %o2], %o2, %gdop(.LLC0)
	st	%g1, [%sp+104]
	mov	256, %o1
	mov	%i4, %o0
.LLVL575:
	ld	[%fp-4], %g1
	mov	%g3, %o4
	ld	[%l7 + %o3], %o3, %gdop(.LLC1)
	ld	[%l7 + %o5], %o5, %gdop(.LLC3)
	st	%g2, [%sp+92]
	st	%g3, [%sp+100]
	call	snprintf, 0
	 st	%g1, [%sp+108]
.LLVL576:
	sethi	%gdop_hix22(.LLC4), %o1
	mov	%i4, %o0
	xor	%o1, %gdop_lox10(.LLC4), %o1
	mov	158, %o2
	call	__assert, 0
	 ld	[%l7 + %o1], %o1, %gdop(.LLC4)
	ba,pt	%xcc, .LL365
	 nop
.LLBE321:
.LLBE326:
	.cfi_endproc
.LLFE70:
	.size	atomic_and_uchar, .-atomic_and_uchar
	.align 4
	.align 32
	.global atomic_and_16
	.type	atomic_and_16, #function
	.proc	020
atomic_and_16:
.LLFB71:
	.loc 1 159 0 is_stmt 1
	.cfi_startproc
.LLVL577:
	save	%sp, -128, %sp
.LLCFI46:
	.cfi_def_cfa_register 30
	.cfi_window_save
	.cfi_register 15, 31
.LLBB327:
	sethi	%gdop_hix22(atomic_lock), %i5
.LLBE327:
	sethi	%hi(_GLOBAL_OFFSET_TABLE_-4), %l7
	call	__sparc_get_pc_thunk.l7
	 add	%l7, %lo(_GLOBAL_OFFSET_TABLE_+4), %l7
.LLBB329:
	.loc 1 159 0
	xor	%i5, %gdop_lox10(atomic_lock), %i5
	ld	[%l7 + %i5], %i5, %gdop(atomic_lock)
	call	pthread_mutex_lock, 0
	 mov	%i5, %o0
	sra	%o0, 31, %g2
.LLVL578:
	orcc	%g2, %o0, %g0
	bne,pn	%icc, .LL377
	 mov	%o0, %g1
.LLVL579:
.LL373:
.LLBE329:
	.loc 1 159 0 is_stmt 0 discriminator 2
	lduh	[%i0], %g1
.LLBB330:
	mov	%i5, %o0
.LLBE330:
	and	%i1, %g1, %i1
.LLVL580:
	sth	%i1, [%i0]
.LLBB332:
	call	pthread_mutex_unlock, 0
	 nop
	sra	%o0, 31, %g2
.LLVL581:
	orcc	%g2, %o0, %g0
	be,pt	%icc, .LL379
	 mov	%o0, %g1
.LLBB331:
	.loc 1 159 0 discriminator 3
	add	%sp, -264, %sp
	stx	%g0, [%fp-8]
	sethi	%gdop_hix22(.LLC2), %g3
	st	%g1, [%sp+96]
	sethi	%gdop_hix22(.LLC0), %o2
	xor	%g3, %gdop_lox10(.LLC2), %g3
	ld	[%fp-8], %g1
	sethi	%gdop_hix22(.LLC5), %o3
	sethi	%gdop_hix22(.LLC3), %o5
	ld	[%l7 + %g3], %g3, %gdop(.LLC2)
	xor	%o2, %gdop_lox10(.LLC0), %o2
	xor	%o3, %gdop_lox10(.LLC5), %o3
	xor	%o5, %gdop_lox10(.LLC3), %o5
	add	%sp, 120, %i5
.LLVL582:
	ld	[%l7 + %o2], %o2, %gdop(.LLC0)
	st	%g1, [%sp+104]
	mov	256, %o1
	mov	%i5, %o0
.LLVL583:
	ld	[%fp-4], %g1
	mov	%g3, %o4
	ld	[%l7 + %o3], %o3, %gdop(.LLC5)
	ld	[%l7 + %o5], %o5, %gdop(.LLC3)
	st	%g2, [%sp+92]
	st	%g3, [%sp+100]
	call	snprintf, 0
	 st	%g1, [%sp+108]
.LLVL584:
	sethi	%gdop_hix22(.LLC4), %o1
	mov	%i5, %o0
	xor	%o1, %gdop_lox10(.LLC4), %o1
	mov	159, %o2
	call	__assert, 0
	 ld	[%l7 + %o1], %o1, %gdop(.LLC4)
.LL379:
	return	%i7+8
	 nop
.LLVL585:
.LL377:
.LLBE331:
.LLBE332:
.LLBB333:
.LLBB328:
	.loc 1 159 0 discriminator 1
	add	%sp, -264, %sp
	stx	%g0, [%fp-8]
	sethi	%gdop_hix22(.LLC2), %g3
	st	%g1, [%sp+96]
	sethi	%gdop_hix22(.LLC0), %o2
	xor	%g3, %gdop_lox10(.LLC2), %g3
	ld	[%fp-8], %g1
.LLVL586:
	sethi	%gdop_hix22(.LLC1), %o3
	sethi	%gdop_hix22(.LLC3), %o5
	ld	[%l7 + %g3], %g3, %gdop(.LLC2)
	xor	%o2, %gdop_lox10(.LLC0), %o2
	xor	%o3, %gdop_lox10(.LLC1), %o3
	xor	%o5, %gdop_lox10(.LLC3), %o5
	add	%sp, 120, %i4
.LLVL587:
	ld	[%l7 + %o2], %o2, %gdop(.LLC0)
	st	%g1, [%sp+104]
	mov	256, %o1
	mov	%i4, %o0
.LLVL588:
	ld	[%fp-4], %g1
	mov	%g3, %o4
	ld	[%l7 + %o3], %o3, %gdop(.LLC1)
	ld	[%l7 + %o5], %o5, %gdop(.LLC3)
	st	%g2, [%sp+92]
	st	%g3, [%sp+100]
	call	snprintf, 0
	 st	%g1, [%sp+108]
.LLVL589:
	sethi	%gdop_hix22(.LLC4), %o1
	mov	%i4, %o0
	xor	%o1, %gdop_lox10(.LLC4), %o1
	mov	159, %o2
	call	__assert, 0
	 ld	[%l7 + %o1], %o1, %gdop(.LLC4)
	ba,pt	%xcc, .LL373
	 nop
.LLBE328:
.LLBE333:
	.cfi_endproc
.LLFE71:
	.size	atomic_and_16, .-atomic_and_16
	.align 4
	.align 32
	.global atomic_and_ushort
	.type	atomic_and_ushort, #function
	.proc	020
atomic_and_ushort:
.LLFB72:
	.loc 1 160 0 is_stmt 1
	.cfi_startproc
.LLVL590:
	save	%sp, -128, %sp
.LLCFI47:
	.cfi_def_cfa_register 30
	.cfi_window_save
	.cfi_register 15, 31
.LLBB334:
	sethi	%gdop_hix22(atomic_lock), %i5
.LLBE334:
	sethi	%hi(_GLOBAL_OFFSET_TABLE_-4), %l7
	call	__sparc_get_pc_thunk.l7
	 add	%l7, %lo(_GLOBAL_OFFSET_TABLE_+4), %l7
.LLBB336:
	.loc 1 160 0
	xor	%i5, %gdop_lox10(atomic_lock), %i5
	ld	[%l7 + %i5], %i5, %gdop(atomic_lock)
	call	pthread_mutex_lock, 0
	 mov	%i5, %o0
	sra	%o0, 31, %g2
.LLVL591:
	orcc	%g2, %o0, %g0
	bne,pn	%icc, .LL385
	 mov	%o0, %g1
.LLVL592:
.LL381:
.LLBE336:
	.loc 1 160 0 is_stmt 0 discriminator 2
	lduh	[%i0], %g1
.LLBB337:
	mov	%i5, %o0
.LLBE337:
	and	%i1, %g1, %i1
.LLVL593:
	sth	%i1, [%i0]
.LLBB339:
	call	pthread_mutex_unlock, 0
	 nop
	sra	%o0, 31, %g2
.LLVL594:
	orcc	%g2, %o0, %g0
	be,pt	%icc, .LL387
	 mov	%o0, %g1
.LLBB338:
	.loc 1 160 0 discriminator 3
	add	%sp, -264, %sp
	stx	%g0, [%fp-8]
	sethi	%gdop_hix22(.LLC2), %g3
	st	%g1, [%sp+96]
	sethi	%gdop_hix22(.LLC0), %o2
	xor	%g3, %gdop_lox10(.LLC2), %g3
	ld	[%fp-8], %g1
	sethi	%gdop_hix22(.LLC5), %o3
	sethi	%gdop_hix22(.LLC3), %o5
	ld	[%l7 + %g3], %g3, %gdop(.LLC2)
	xor	%o2, %gdop_lox10(.LLC0), %o2
	xor	%o3, %gdop_lox10(.LLC5), %o3
	xor	%o5, %gdop_lox10(.LLC3), %o5
	add	%sp, 120, %i5
.LLVL595:
	ld	[%l7 + %o2], %o2, %gdop(.LLC0)
	st	%g1, [%sp+104]
	mov	256, %o1
	mov	%i5, %o0
.LLVL596:
	ld	[%fp-4], %g1
	mov	%g3, %o4
	ld	[%l7 + %o3], %o3, %gdop(.LLC5)
	ld	[%l7 + %o5], %o5, %gdop(.LLC3)
	st	%g2, [%sp+92]
	st	%g3, [%sp+100]
	call	snprintf, 0
	 st	%g1, [%sp+108]
.LLVL597:
	sethi	%gdop_hix22(.LLC4), %o1
	mov	%i5, %o0
	xor	%o1, %gdop_lox10(.LLC4), %o1
	mov	160, %o2
	call	__assert, 0
	 ld	[%l7 + %o1], %o1, %gdop(.LLC4)
.LL387:
	return	%i7+8
	 nop
.LLVL598:
.LL385:
.LLBE338:
.LLBE339:
.LLBB340:
.LLBB335:
	.loc 1 160 0 discriminator 1
	add	%sp, -264, %sp
	stx	%g0, [%fp-8]
	sethi	%gdop_hix22(.LLC2), %g3
	st	%g1, [%sp+96]
	sethi	%gdop_hix22(.LLC0), %o2
	xor	%g3, %gdop_lox10(.LLC2), %g3
	ld	[%fp-8], %g1
.LLVL599:
	sethi	%gdop_hix22(.LLC1), %o3
	sethi	%gdop_hix22(.LLC3), %o5
	ld	[%l7 + %g3], %g3, %gdop(.LLC2)
	xor	%o2, %gdop_lox10(.LLC0), %o2
	xor	%o3, %gdop_lox10(.LLC1), %o3
	xor	%o5, %gdop_lox10(.LLC3), %o5
	add	%sp, 120, %i4
.LLVL600:
	ld	[%l7 + %o2], %o2, %gdop(.LLC0)
	st	%g1, [%sp+104]
	mov	256, %o1
	mov	%i4, %o0
.LLVL601:
	ld	[%fp-4], %g1
	mov	%g3, %o4
	ld	[%l7 + %o3], %o3, %gdop(.LLC1)
	ld	[%l7 + %o5], %o5, %gdop(.LLC3)
	st	%g2, [%sp+92]
	st	%g3, [%sp+100]
	call	snprintf, 0
	 st	%g1, [%sp+108]
.LLVL602:
	sethi	%gdop_hix22(.LLC4), %o1
	mov	%i4, %o0
	xor	%o1, %gdop_lox10(.LLC4), %o1
	mov	160, %o2
	call	__assert, 0
	 ld	[%l7 + %o1], %o1, %gdop(.LLC4)
	ba,pt	%xcc, .LL381
	 nop
.LLBE335:
.LLBE340:
	.cfi_endproc
.LLFE72:
	.size	atomic_and_ushort, .-atomic_and_ushort
	.align 4
	.align 32
	.global atomic_and_32
	.type	atomic_and_32, #function
	.proc	020
atomic_and_32:
.LLFB73:
	.loc 1 161 0 is_stmt 1
	.cfi_startproc
.LLVL603:
	save	%sp, -128, %sp
.LLCFI48:
	.cfi_def_cfa_register 30
	.cfi_window_save
	.cfi_register 15, 31
.LLBB341:
	sethi	%gdop_hix22(atomic_lock), %i5
.LLBE341:
	sethi	%hi(_GLOBAL_OFFSET_TABLE_-4), %l7
	call	__sparc_get_pc_thunk.l7
	 add	%l7, %lo(_GLOBAL_OFFSET_TABLE_+4), %l7
.LLBB343:
	.loc 1 161 0
	xor	%i5, %gdop_lox10(atomic_lock), %i5
	ld	[%l7 + %i5], %i5, %gdop(atomic_lock)
	call	pthread_mutex_lock, 0
	 mov	%i5, %o0
	sra	%o0, 31, %g2
.LLVL604:
	orcc	%g2, %o0, %g0
	bne,pn	%icc, .LL393
	 mov	%o0, %g1
.LLVL605:
.LL389:
.LLBE343:
	.loc 1 161 0 is_stmt 0 discriminator 2
	ld	[%i0], %g1
.LLBB344:
	mov	%i5, %o0
.LLBE344:
	and	%i1, %g1, %i1
.LLVL606:
	st	%i1, [%i0]
.LLBB346:
	call	pthread_mutex_unlock, 0
	 nop
	sra	%o0, 31, %g2
.LLVL607:
	orcc	%g2, %o0, %g0
	be,pt	%icc, .LL395
	 mov	%o0, %g1
.LLBB345:
	.loc 1 161 0 discriminator 3
	add	%sp, -264, %sp
	stx	%g0, [%fp-8]
	sethi	%gdop_hix22(.LLC2), %g3
	st	%g1, [%sp+96]
	sethi	%gdop_hix22(.LLC0), %o2
	xor	%g3, %gdop_lox10(.LLC2), %g3
	ld	[%fp-8], %g1
	sethi	%gdop_hix22(.LLC5), %o3
	sethi	%gdop_hix22(.LLC3), %o5
	ld	[%l7 + %g3], %g3, %gdop(.LLC2)
	xor	%o2, %gdop_lox10(.LLC0), %o2
	xor	%o3, %gdop_lox10(.LLC5), %o3
	xor	%o5, %gdop_lox10(.LLC3), %o5
	add	%sp, 120, %i5
.LLVL608:
	ld	[%l7 + %o2], %o2, %gdop(.LLC0)
	st	%g1, [%sp+104]
	mov	256, %o1
	mov	%i5, %o0
.LLVL609:
	ld	[%fp-4], %g1
	mov	%g3, %o4
	ld	[%l7 + %o3], %o3, %gdop(.LLC5)
	ld	[%l7 + %o5], %o5, %gdop(.LLC3)
	st	%g2, [%sp+92]
	st	%g3, [%sp+100]
	call	snprintf, 0
	 st	%g1, [%sp+108]
.LLVL610:
	sethi	%gdop_hix22(.LLC4), %o1
	mov	%i5, %o0
	xor	%o1, %gdop_lox10(.LLC4), %o1
	mov	161, %o2
	call	__assert, 0
	 ld	[%l7 + %o1], %o1, %gdop(.LLC4)
.LL395:
	return	%i7+8
	 nop
.LLVL611:
.LL393:
.LLBE345:
.LLBE346:
.LLBB347:
.LLBB342:
	.loc 1 161 0 discriminator 1
	add	%sp, -264, %sp
	stx	%g0, [%fp-8]
	sethi	%gdop_hix22(.LLC2), %g3
	st	%g1, [%sp+96]
	sethi	%gdop_hix22(.LLC0), %o2
	xor	%g3, %gdop_lox10(.LLC2), %g3
	ld	[%fp-8], %g1
.LLVL612:
	sethi	%gdop_hix22(.LLC1), %o3
	sethi	%gdop_hix22(.LLC3), %o5
	ld	[%l7 + %g3], %g3, %gdop(.LLC2)
	xor	%o2, %gdop_lox10(.LLC0), %o2
	xor	%o3, %gdop_lox10(.LLC1), %o3
	xor	%o5, %gdop_lox10(.LLC3), %o5
	add	%sp, 120, %i4
.LLVL613:
	ld	[%l7 + %o2], %o2, %gdop(.LLC0)
	st	%g1, [%sp+104]
	mov	256, %o1
	mov	%i4, %o0
.LLVL614:
	ld	[%fp-4], %g1
	mov	%g3, %o4
	ld	[%l7 + %o3], %o3, %gdop(.LLC1)
	ld	[%l7 + %o5], %o5, %gdop(.LLC3)
	st	%g2, [%sp+92]
	st	%g3, [%sp+100]
	call	snprintf, 0
	 st	%g1, [%sp+108]
.LLVL615:
	sethi	%gdop_hix22(.LLC4), %o1
	mov	%i4, %o0
	xor	%o1, %gdop_lox10(.LLC4), %o1
	mov	161, %o2
	call	__assert, 0
	 ld	[%l7 + %o1], %o1, %gdop(.LLC4)
	ba,pt	%xcc, .LL389
	 nop
.LLBE342:
.LLBE347:
	.cfi_endproc
.LLFE73:
	.size	atomic_and_32, .-atomic_and_32
	.align 4
	.align 32
	.global atomic_and_uint
	.type	atomic_and_uint, #function
	.proc	020
atomic_and_uint:
.LLFB74:
	.loc 1 162 0 is_stmt 1
	.cfi_startproc
.LLVL616:
	save	%sp, -128, %sp
.LLCFI49:
	.cfi_def_cfa_register 30
	.cfi_window_save
	.cfi_register 15, 31
.LLBB348:
	sethi	%gdop_hix22(atomic_lock), %i5
.LLBE348:
	sethi	%hi(_GLOBAL_OFFSET_TABLE_-4), %l7
	call	__sparc_get_pc_thunk.l7
	 add	%l7, %lo(_GLOBAL_OFFSET_TABLE_+4), %l7
.LLBB350:
	.loc 1 162 0
	xor	%i5, %gdop_lox10(atomic_lock), %i5
	ld	[%l7 + %i5], %i5, %gdop(atomic_lock)
	call	pthread_mutex_lock, 0
	 mov	%i5, %o0
	sra	%o0, 31, %g2
.LLVL617:
	orcc	%g2, %o0, %g0
	bne,pn	%icc, .LL401
	 mov	%o0, %g1
.LLVL618:
.LL397:
.LLBE350:
	.loc 1 162 0 is_stmt 0 discriminator 2
	ld	[%i0], %g1
.LLBB351:
	mov	%i5, %o0
.LLBE351:
	and	%i1, %g1, %i1
.LLVL619:
	st	%i1, [%i0]
.LLBB353:
	call	pthread_mutex_unlock, 0
	 nop
	sra	%o0, 31, %g2
.LLVL620:
	orcc	%g2, %o0, %g0
	be,pt	%icc, .LL403
	 mov	%o0, %g1
.LLBB352:
	.loc 1 162 0 discriminator 3
	add	%sp, -264, %sp
	stx	%g0, [%fp-8]
	sethi	%gdop_hix22(.LLC2), %g3
	st	%g1, [%sp+96]
	sethi	%gdop_hix22(.LLC0), %o2
	xor	%g3, %gdop_lox10(.LLC2), %g3
	ld	[%fp-8], %g1
	sethi	%gdop_hix22(.LLC5), %o3
	sethi	%gdop_hix22(.LLC3), %o5
	ld	[%l7 + %g3], %g3, %gdop(.LLC2)
	xor	%o2, %gdop_lox10(.LLC0), %o2
	xor	%o3, %gdop_lox10(.LLC5), %o3
	xor	%o5, %gdop_lox10(.LLC3), %o5
	add	%sp, 120, %i5
.LLVL621:
	ld	[%l7 + %o2], %o2, %gdop(.LLC0)
	st	%g1, [%sp+104]
	mov	256, %o1
	mov	%i5, %o0
.LLVL622:
	ld	[%fp-4], %g1
	mov	%g3, %o4
	ld	[%l7 + %o3], %o3, %gdop(.LLC5)
	ld	[%l7 + %o5], %o5, %gdop(.LLC3)
	st	%g2, [%sp+92]
	st	%g3, [%sp+100]
	call	snprintf, 0
	 st	%g1, [%sp+108]
.LLVL623:
	sethi	%gdop_hix22(.LLC4), %o1
	mov	%i5, %o0
	xor	%o1, %gdop_lox10(.LLC4), %o1
	mov	162, %o2
	call	__assert, 0
	 ld	[%l7 + %o1], %o1, %gdop(.LLC4)
.LL403:
	return	%i7+8
	 nop
.LLVL624:
.LL401:
.LLBE352:
.LLBE353:
.LLBB354:
.LLBB349:
	.loc 1 162 0 discriminator 1
	add	%sp, -264, %sp
	stx	%g0, [%fp-8]
	sethi	%gdop_hix22(.LLC2), %g3
	st	%g1, [%sp+96]
	sethi	%gdop_hix22(.LLC0), %o2
	xor	%g3, %gdop_lox10(.LLC2), %g3
	ld	[%fp-8], %g1
.LLVL625:
	sethi	%gdop_hix22(.LLC1), %o3
	sethi	%gdop_hix22(.LLC3), %o5
	ld	[%l7 + %g3], %g3, %gdop(.LLC2)
	xor	%o2, %gdop_lox10(.LLC0), %o2
	xor	%o3, %gdop_lox10(.LLC1), %o3
	xor	%o5, %gdop_lox10(.LLC3), %o5
	add	%sp, 120, %i4
.LLVL626:
	ld	[%l7 + %o2], %o2, %gdop(.LLC0)
	st	%g1, [%sp+104]
	mov	256, %o1
	mov	%i4, %o0
.LLVL627:
	ld	[%fp-4], %g1
	mov	%g3, %o4
	ld	[%l7 + %o3], %o3, %gdop(.LLC1)
	ld	[%l7 + %o5], %o5, %gdop(.LLC3)
	st	%g2, [%sp+92]
	st	%g3, [%sp+100]
	call	snprintf, 0
	 st	%g1, [%sp+108]
.LLVL628:
	sethi	%gdop_hix22(.LLC4), %o1
	mov	%i4, %o0
	xor	%o1, %gdop_lox10(.LLC4), %o1
	mov	162, %o2
	call	__assert, 0
	 ld	[%l7 + %o1], %o1, %gdop(.LLC4)
	ba,pt	%xcc, .LL397
	 nop
.LLBE349:
.LLBE354:
	.cfi_endproc
.LLFE74:
	.size	atomic_and_uint, .-atomic_and_uint
	.align 4
	.align 32
	.global atomic_and_ulong
	.type	atomic_and_ulong, #function
	.proc	020
atomic_and_ulong:
.LLFB75:
	.loc 1 163 0 is_stmt 1
	.cfi_startproc
.LLVL629:
	save	%sp, -128, %sp
.LLCFI50:
	.cfi_def_cfa_register 30
	.cfi_window_save
	.cfi_register 15, 31
.LLBB355:
	sethi	%gdop_hix22(atomic_lock), %i5
.LLBE355:
	sethi	%hi(_GLOBAL_OFFSET_TABLE_-4), %l7
	call	__sparc_get_pc_thunk.l7
	 add	%l7, %lo(_GLOBAL_OFFSET_TABLE_+4), %l7
.LLBB357:
	.loc 1 163 0
	xor	%i5, %gdop_lox10(atomic_lock), %i5
	ld	[%l7 + %i5], %i5, %gdop(atomic_lock)
	call	pthread_mutex_lock, 0
	 mov	%i5, %o0
	sra	%o0, 31, %g2
.LLVL630:
	orcc	%g2, %o0, %g0
	bne,pn	%icc, .LL409
	 mov	%o0, %g1
.LLVL631:
.LL405:
.LLBE357:
	.loc 1 163 0 is_stmt 0 discriminator 2
	ld	[%i0], %g1
.LLBB358:
	mov	%i5, %o0
.LLBE358:
	and	%i1, %g1, %i1
.LLVL632:
	st	%i1, [%i0]
.LLBB360:
	call	pthread_mutex_unlock, 0
	 nop
	sra	%o0, 31, %g2
.LLVL633:
	orcc	%g2, %o0, %g0
	be,pt	%icc, .LL411
	 mov	%o0, %g1
.LLBB359:
	.loc 1 163 0 discriminator 3
	add	%sp, -264, %sp
	stx	%g0, [%fp-8]
	sethi	%gdop_hix22(.LLC2), %g3
	st	%g1, [%sp+96]
	sethi	%gdop_hix22(.LLC0), %o2
	xor	%g3, %gdop_lox10(.LLC2), %g3
	ld	[%fp-8], %g1
	sethi	%gdop_hix22(.LLC5), %o3
	sethi	%gdop_hix22(.LLC3), %o5
	ld	[%l7 + %g3], %g3, %gdop(.LLC2)
	xor	%o2, %gdop_lox10(.LLC0), %o2
	xor	%o3, %gdop_lox10(.LLC5), %o3
	xor	%o5, %gdop_lox10(.LLC3), %o5
	add	%sp, 120, %i5
.LLVL634:
	ld	[%l7 + %o2], %o2, %gdop(.LLC0)
	st	%g1, [%sp+104]
	mov	256, %o1
	mov	%i5, %o0
.LLVL635:
	ld	[%fp-4], %g1
	mov	%g3, %o4
	ld	[%l7 + %o3], %o3, %gdop(.LLC5)
	ld	[%l7 + %o5], %o5, %gdop(.LLC3)
	st	%g2, [%sp+92]
	st	%g3, [%sp+100]
	call	snprintf, 0
	 st	%g1, [%sp+108]
.LLVL636:
	sethi	%gdop_hix22(.LLC4), %o1
	mov	%i5, %o0
	xor	%o1, %gdop_lox10(.LLC4), %o1
	mov	163, %o2
	call	__assert, 0
	 ld	[%l7 + %o1], %o1, %gdop(.LLC4)
.LL411:
	return	%i7+8
	 nop
.LLVL637:
.LL409:
.LLBE359:
.LLBE360:
.LLBB361:
.LLBB356:
	.loc 1 163 0 discriminator 1
	add	%sp, -264, %sp
	stx	%g0, [%fp-8]
	sethi	%gdop_hix22(.LLC2), %g3
	st	%g1, [%sp+96]
	sethi	%gdop_hix22(.LLC0), %o2
	xor	%g3, %gdop_lox10(.LLC2), %g3
	ld	[%fp-8], %g1
.LLVL638:
	sethi	%gdop_hix22(.LLC1), %o3
	sethi	%gdop_hix22(.LLC3), %o5
	ld	[%l7 + %g3], %g3, %gdop(.LLC2)
	xor	%o2, %gdop_lox10(.LLC0), %o2
	xor	%o3, %gdop_lox10(.LLC1), %o3
	xor	%o5, %gdop_lox10(.LLC3), %o5
	add	%sp, 120, %i4
.LLVL639:
	ld	[%l7 + %o2], %o2, %gdop(.LLC0)
	st	%g1, [%sp+104]
	mov	256, %o1
	mov	%i4, %o0
.LLVL640:
	ld	[%fp-4], %g1
	mov	%g3, %o4
	ld	[%l7 + %o3], %o3, %gdop(.LLC1)
	ld	[%l7 + %o5], %o5, %gdop(.LLC3)
	st	%g2, [%sp+92]
	st	%g3, [%sp+100]
	call	snprintf, 0
	 st	%g1, [%sp+108]
.LLVL641:
	sethi	%gdop_hix22(.LLC4), %o1
	mov	%i4, %o0
	xor	%o1, %gdop_lox10(.LLC4), %o1
	mov	163, %o2
	call	__assert, 0
	 ld	[%l7 + %o1], %o1, %gdop(.LLC4)
	ba,pt	%xcc, .LL405
	 nop
.LLBE356:
.LLBE361:
	.cfi_endproc
.LLFE75:
	.size	atomic_and_ulong, .-atomic_and_ulong
	.align 4
	.align 32
	.global atomic_and_64
	.type	atomic_and_64, #function
	.proc	020
atomic_and_64:
.LLFB76:
	.loc 1 164 0 is_stmt 1
	.cfi_startproc
.LLVL642:
	save	%sp, -128, %sp
.LLCFI51:
	.cfi_def_cfa_register 30
	.cfi_window_save
	.cfi_register 15, 31
.LLBB362:
	sethi	%gdop_hix22(atomic_lock), %i3
.LLBE362:
	mov	%i1, %i4
	sethi	%hi(_GLOBAL_OFFSET_TABLE_-4), %l7
	call	__sparc_get_pc_thunk.l7
	 add	%l7, %lo(_GLOBAL_OFFSET_TABLE_+4), %l7
.LLBB364:
	.loc 1 164 0
	xor	%i3, %gdop_lox10(atomic_lock), %i3
.LLBE364:
	mov	%i2, %i5
.LLBB365:
	ld	[%l7 + %i3], %i3, %gdop(atomic_lock)
	call	pthread_mutex_lock, 0
	 mov	%i3, %o0
	sra	%o0, 31, %g2
.LLVL643:
	orcc	%g2, %o0, %g0
	bne,pn	%icc, .LL417
	 mov	%o0, %g1
.LLVL644:
.LL413:
.LLBE365:
	.loc 1 164 0 is_stmt 0 discriminator 2
	ldd	[%i0], %g2
.LLBB366:
	mov	%i3, %o0
.LLBE366:
	and	%i4, %g2, %i4
	and	%i5, %g3, %i5
	std	%i4, [%i0]
.LLBB368:
	call	pthread_mutex_unlock, 0
	 nop
	sra	%o0, 31, %g2
.LLVL645:
	orcc	%g2, %o0, %g0
	be,pt	%icc, .LL419
	 mov	%o0, %g1
.LLBB367:
	.loc 1 164 0 discriminator 3
	add	%sp, -264, %sp
	stx	%g0, [%fp-8]
	sethi	%gdop_hix22(.LLC2), %g3
	st	%g1, [%sp+96]
	sethi	%gdop_hix22(.LLC0), %o2
	xor	%g3, %gdop_lox10(.LLC2), %g3
	ld	[%fp-8], %g1
	sethi	%gdop_hix22(.LLC5), %o3
	sethi	%gdop_hix22(.LLC3), %o5
	ld	[%l7 + %g3], %g3, %gdop(.LLC2)
	xor	%o2, %gdop_lox10(.LLC0), %o2
	xor	%o3, %gdop_lox10(.LLC5), %o3
	xor	%o5, %gdop_lox10(.LLC3), %o5
	add	%sp, 120, %i4
.LLVL646:
	ld	[%l7 + %o2], %o2, %gdop(.LLC0)
	st	%g1, [%sp+104]
	mov	256, %o1
	mov	%i4, %o0
.LLVL647:
	ld	[%fp-4], %g1
	mov	%g3, %o4
	ld	[%l7 + %o3], %o3, %gdop(.LLC5)
	ld	[%l7 + %o5], %o5, %gdop(.LLC3)
	st	%g2, [%sp+92]
	st	%g3, [%sp+100]
	call	snprintf, 0
	 st	%g1, [%sp+108]
.LLVL648:
	sethi	%gdop_hix22(.LLC4), %o1
	mov	%i4, %o0
	xor	%o1, %gdop_lox10(.LLC4), %o1
	mov	164, %o2
	call	__assert, 0
	 ld	[%l7 + %o1], %o1, %gdop(.LLC4)
.LL419:
	return	%i7+8
	 nop
.LLVL649:
.LL417:
.LLBE367:
.LLBE368:
.LLBB369:
.LLBB363:
	.loc 1 164 0 discriminator 1
	add	%sp, -264, %sp
	stx	%g0, [%fp-8]
	sethi	%gdop_hix22(.LLC2), %g3
	st	%g1, [%sp+96]
	sethi	%gdop_hix22(.LLC0), %o2
	xor	%g3, %gdop_lox10(.LLC2), %g3
	ld	[%fp-8], %g1
.LLVL650:
	sethi	%gdop_hix22(.LLC1), %o3
	sethi	%gdop_hix22(.LLC3), %o5
	ld	[%l7 + %g3], %g3, %gdop(.LLC2)
	xor	%o2, %gdop_lox10(.LLC0), %o2
	xor	%o3, %gdop_lox10(.LLC1), %o3
	xor	%o5, %gdop_lox10(.LLC3), %o5
	add	%sp, 120, %i2
.LLVL651:
	ld	[%l7 + %o2], %o2, %gdop(.LLC0)
	st	%g1, [%sp+104]
	mov	256, %o1
	mov	%i2, %o0
.LLVL652:
	ld	[%fp-4], %g1
	mov	%g3, %o4
	ld	[%l7 + %o3], %o3, %gdop(.LLC1)
	ld	[%l7 + %o5], %o5, %gdop(.LLC3)
	st	%g2, [%sp+92]
	st	%g3, [%sp+100]
	call	snprintf, 0
	 st	%g1, [%sp+108]
.LLVL653:
	sethi	%gdop_hix22(.LLC4), %o1
	mov	%i2, %o0
	xor	%o1, %gdop_lox10(.LLC4), %o1
	mov	164, %o2
	call	__assert, 0
	 ld	[%l7 + %o1], %o1, %gdop(.LLC4)
	ba,pt	%xcc, .LL413
	 nop
.LLBE363:
.LLBE369:
	.cfi_endproc
.LLFE76:
	.size	atomic_and_64, .-atomic_and_64
	.align 4
	.align 32
	.global atomic_inc_long_nv
	.type	atomic_inc_long_nv, #function
	.proc	016
atomic_inc_long_nv:
.LLFB77:
	.loc 1 181 0 is_stmt 1
	.cfi_startproc
.LLVL654:
	save	%sp, -128, %sp
.LLCFI52:
	.cfi_def_cfa_register 30
	.cfi_window_save
	.cfi_register 15, 31
.LLBB370:
	sethi	%gdop_hix22(atomic_lock), %i4
.LLBE370:
	mov	%i0, %i5
	sethi	%hi(_GLOBAL_OFFSET_TABLE_-4), %l7
	call	__sparc_get_pc_thunk.l7
	 add	%l7, %lo(_GLOBAL_OFFSET_TABLE_+4), %l7
.LLBB372:
	.loc 1 181 0
	xor	%i4, %gdop_lox10(atomic_lock), %i4
	ld	[%l7 + %i4], %i4, %gdop(atomic_lock)
	call	pthread_mutex_lock, 0
	 mov	%i4, %o0
	sra	%o0, 31, %g2
.LLVL655:
	orcc	%g2, %o0, %g0
	bne,pn	%icc, .LL425
	 mov	%o0, %g1
.LLVL656:
.LL421:
.LLBE372:
	.loc 1 181 0 is_stmt 0 discriminator 2
	ld	[%i5], %i0
.LLBB373:
	mov	%i4, %o0
.LLBE373:
	add	%i0, 1, %i0
	st	%i0, [%i5]
.LLVL657:
.LLBB375:
	call	pthread_mutex_unlock, 0
	 nop
	sra	%o0, 31, %g2
.LLVL658:
	orcc	%g2, %o0, %g0
	be,pt	%icc, .LL427
	 mov	%o0, %g1
.LLBB374:
	.loc 1 181 0 discriminator 3
	add	%sp, -264, %sp
	stx	%g0, [%fp-8]
	sethi	%gdop_hix22(.LLC2), %g3
	st	%g1, [%sp+96]
	sethi	%gdop_hix22(.LLC0), %o2
	xor	%g3, %gdop_lox10(.LLC2), %g3
	ld	[%fp-8], %g1
	sethi	%gdop_hix22(.LLC5), %o3
	sethi	%gdop_hix22(.LLC3), %o5
	ld	[%l7 + %g3], %g3, %gdop(.LLC2)
	xor	%o2, %gdop_lox10(.LLC0), %o2
	xor	%o3, %gdop_lox10(.LLC5), %o3
	xor	%o5, %gdop_lox10(.LLC3), %o5
	add	%sp, 120, %i5
.LLVL659:
	ld	[%l7 + %o2], %o2, %gdop(.LLC0)
	st	%g1, [%sp+104]
	mov	256, %o1
	mov	%i5, %o0
.LLVL660:
	ld	[%fp-4], %g1
	mov	%g3, %o4
	ld	[%l7 + %o3], %o3, %gdop(.LLC5)
	ld	[%l7 + %o5], %o5, %gdop(.LLC3)
	st	%g2, [%sp+92]
	st	%g3, [%sp+100]
	call	snprintf, 0
	 st	%g1, [%sp+108]
.LLVL661:
	sethi	%gdop_hix22(.LLC4), %o1
	mov	%i5, %o0
	xor	%o1, %gdop_lox10(.LLC4), %o1
	mov	181, %o2
	call	__assert, 0
	 ld	[%l7 + %o1], %o1, %gdop(.LLC4)
.LL427:
.LLBE374:
.LLBE375:
	return	%i7+8
	 nop
.LLVL662:
.LL425:
.LLBB376:
.LLBB371:
	.loc 1 181 0 discriminator 1
	add	%sp, -264, %sp
	stx	%g0, [%fp-8]
	sethi	%gdop_hix22(.LLC2), %g3
	st	%g1, [%sp+96]
	sethi	%gdop_hix22(.LLC0), %o2
	xor	%g3, %gdop_lox10(.LLC2), %g3
	ld	[%fp-8], %g1
.LLVL663:
	sethi	%gdop_hix22(.LLC1), %o3
	sethi	%gdop_hix22(.LLC3), %o5
	ld	[%l7 + %g3], %g3, %gdop(.LLC2)
	xor	%o2, %gdop_lox10(.LLC0), %o2
	xor	%o3, %gdop_lox10(.LLC1), %o3
	xor	%o5, %gdop_lox10(.LLC3), %o5
	add	%sp, 120, %i0
.LLVL664:
	ld	[%l7 + %o2], %o2, %gdop(.LLC0)
	st	%g1, [%sp+104]
	mov	256, %o1
	mov	%i0, %o0
.LLVL665:
	ld	[%fp-4], %g1
	mov	%g3, %o4
	ld	[%l7 + %o3], %o3, %gdop(.LLC1)
	ld	[%l7 + %o5], %o5, %gdop(.LLC3)
	st	%g2, [%sp+92]
	st	%g3, [%sp+100]
	call	snprintf, 0
	 st	%g1, [%sp+108]
.LLVL666:
	sethi	%gdop_hix22(.LLC4), %o1
	mov	%i0, %o0
	xor	%o1, %gdop_lox10(.LLC4), %o1
	mov	181, %o2
	call	__assert, 0
	 ld	[%l7 + %o1], %o1, %gdop(.LLC4)
	ba,pt	%xcc, .LL421
	 nop
.LLBE371:
.LLBE376:
	.cfi_endproc
.LLFE77:
	.size	atomic_inc_long_nv, .-atomic_inc_long_nv
	.align 4
	.align 32
	.global atomic_inc_8_nv
	.type	atomic_inc_8_nv, #function
	.proc	014
atomic_inc_8_nv:
.LLFB78:
	.loc 1 182 0 is_stmt 1
	.cfi_startproc
.LLVL667:
	save	%sp, -128, %sp
.LLCFI53:
	.cfi_def_cfa_register 30
	.cfi_window_save
	.cfi_register 15, 31
.LLBB377:
	sethi	%gdop_hix22(atomic_lock), %i5
.LLBE377:
	sethi	%hi(_GLOBAL_OFFSET_TABLE_-4), %l7
	call	__sparc_get_pc_thunk.l7
	 add	%l7, %lo(_GLOBAL_OFFSET_TABLE_+4), %l7
.LLBB379:
	.loc 1 182 0
	xor	%i5, %gdop_lox10(atomic_lock), %i5
	ld	[%l7 + %i5], %i5, %gdop(atomic_lock)
	call	pthread_mutex_lock, 0
	 mov	%i5, %o0
	sra	%o0, 31, %g2
.LLVL668:
	orcc	%g2, %o0, %g0
	bne,pn	%icc, .LL433
	 mov	%o0, %g1
.LLVL669:
.LL429:
.LLBE379:
	.loc 1 182 0 is_stmt 0 discriminator 2
	ldub	[%i0], %g1
.LLBB380:
	mov	%i5, %o0
.LLBE380:
	add	%g1, 1, %g1
	stb	%g1, [%i0]
.LLVL670:
.LLBB382:
	call	pthread_mutex_unlock, 0
	 mov	%g1, %i0
.LLVL671:
	sra	%o0, 31, %g2
.LLVL672:
	orcc	%g2, %o0, %g0
	be,pt	%icc, .LL431
	 mov	%o0, %g1
.LLBB381:
	.loc 1 182 0 discriminator 3
	add	%sp, -264, %sp
	stx	%g0, [%fp-8]
	sethi	%gdop_hix22(.LLC2), %g3
	st	%g1, [%sp+96]
	sethi	%gdop_hix22(.LLC0), %o2
	xor	%g3, %gdop_lox10(.LLC2), %g3
	ld	[%fp-8], %g1
	sethi	%gdop_hix22(.LLC5), %o3
	sethi	%gdop_hix22(.LLC3), %o5
	ld	[%l7 + %g3], %g3, %gdop(.LLC2)
	xor	%o2, %gdop_lox10(.LLC0), %o2
	xor	%o3, %gdop_lox10(.LLC5), %o3
	xor	%o5, %gdop_lox10(.LLC3), %o5
	add	%sp, 120, %i5
.LLVL673:
	ld	[%l7 + %o2], %o2, %gdop(.LLC0)
	st	%g1, [%sp+104]
	mov	256, %o1
	mov	%i5, %o0
.LLVL674:
	ld	[%fp-4], %g1
	mov	%g3, %o4
	ld	[%l7 + %o3], %o3, %gdop(.LLC5)
	ld	[%l7 + %o5], %o5, %gdop(.LLC3)
	st	%g2, [%sp+92]
	st	%g3, [%sp+100]
	call	snprintf, 0
	 st	%g1, [%sp+108]
.LLVL675:
	sethi	%gdop_hix22(.LLC4), %o1
	mov	%i5, %o0
	xor	%o1, %gdop_lox10(.LLC4), %o1
	mov	182, %o2
	call	__assert, 0
	 ld	[%l7 + %o1], %o1, %gdop(.LLC4)
.LLVL676:
.LL431:
.LLBE381:
.LLBE382:
	.loc 1 182 0 discriminator 4
	return	%i7+8
	 and	%o0, 0xff, %o0
.LLVL677:
.LL433:
.LLBB383:
.LLBB378:
	.loc 1 182 0 discriminator 1
	add	%sp, -264, %sp
	stx	%g0, [%fp-8]
	sethi	%gdop_hix22(.LLC2), %g3
	st	%g1, [%sp+96]
	sethi	%gdop_hix22(.LLC0), %o2
	xor	%g3, %gdop_lox10(.LLC2), %g3
	ld	[%fp-8], %g1
.LLVL678:
	sethi	%gdop_hix22(.LLC1), %o3
	sethi	%gdop_hix22(.LLC3), %o5
	ld	[%l7 + %g3], %g3, %gdop(.LLC2)
	xor	%o2, %gdop_lox10(.LLC0), %o2
	xor	%o3, %gdop_lox10(.LLC1), %o3
	xor	%o5, %gdop_lox10(.LLC3), %o5
	add	%sp, 120, %i4
.LLVL679:
	ld	[%l7 + %o2], %o2, %gdop(.LLC0)
	st	%g1, [%sp+104]
	mov	256, %o1
	mov	%i4, %o0
.LLVL680:
	ld	[%fp-4], %g1
	mov	%g3, %o4
	ld	[%l7 + %o3], %o3, %gdop(.LLC1)
	ld	[%l7 + %o5], %o5, %gdop(.LLC3)
	st	%g2, [%sp+92]
	st	%g3, [%sp+100]
	call	snprintf, 0
	 st	%g1, [%sp+108]
.LLVL681:
	sethi	%gdop_hix22(.LLC4), %o1
	mov	%i4, %o0
	xor	%o1, %gdop_lox10(.LLC4), %o1
	mov	182, %o2
	call	__assert, 0
	 ld	[%l7 + %o1], %o1, %gdop(.LLC4)
	ba,pt	%xcc, .LL429
	 nop
.LLBE378:
.LLBE383:
	.cfi_endproc
.LLFE78:
	.size	atomic_inc_8_nv, .-atomic_inc_8_nv
	.align 4
	.align 32
	.global atomic_inc_uchar_nv
	.type	atomic_inc_uchar_nv, #function
	.proc	014
atomic_inc_uchar_nv:
.LLFB79:
	.loc 1 183 0 is_stmt 1
	.cfi_startproc
.LLVL682:
	save	%sp, -128, %sp
.LLCFI54:
	.cfi_def_cfa_register 30
	.cfi_window_save
	.cfi_register 15, 31
.LLBB384:
	sethi	%gdop_hix22(atomic_lock), %i5
.LLBE384:
	sethi	%hi(_GLOBAL_OFFSET_TABLE_-4), %l7
	call	__sparc_get_pc_thunk.l7
	 add	%l7, %lo(_GLOBAL_OFFSET_TABLE_+4), %l7
.LLBB386:
	.loc 1 183 0
	xor	%i5, %gdop_lox10(atomic_lock), %i5
	ld	[%l7 + %i5], %i5, %gdop(atomic_lock)
	call	pthread_mutex_lock, 0
	 mov	%i5, %o0
	sra	%o0, 31, %g2
.LLVL683:
	orcc	%g2, %o0, %g0
	bne,pn	%icc, .LL439
	 mov	%o0, %g1
.LLVL684:
.LL435:
.LLBE386:
	.loc 1 183 0 is_stmt 0 discriminator 2
	ldub	[%i0], %g1
.LLBB387:
	mov	%i5, %o0
.LLBE387:
	add	%g1, 1, %g1
	stb	%g1, [%i0]
.LLVL685:
.LLBB389:
	call	pthread_mutex_unlock, 0
	 mov	%g1, %i0
.LLVL686:
	sra	%o0, 31, %g2
.LLVL687:
	orcc	%g2, %o0, %g0
	be,pt	%icc, .LL437
	 mov	%o0, %g1
.LLBB388:
	.loc 1 183 0 discriminator 3
	add	%sp, -264, %sp
	stx	%g0, [%fp-8]
	sethi	%gdop_hix22(.LLC2), %g3
	st	%g1, [%sp+96]
	sethi	%gdop_hix22(.LLC0), %o2
	xor	%g3, %gdop_lox10(.LLC2), %g3
	ld	[%fp-8], %g1
	sethi	%gdop_hix22(.LLC5), %o3
	sethi	%gdop_hix22(.LLC3), %o5
	ld	[%l7 + %g3], %g3, %gdop(.LLC2)
	xor	%o2, %gdop_lox10(.LLC0), %o2
	xor	%o3, %gdop_lox10(.LLC5), %o3
	xor	%o5, %gdop_lox10(.LLC3), %o5
	add	%sp, 120, %i5
.LLVL688:
	ld	[%l7 + %o2], %o2, %gdop(.LLC0)
	st	%g1, [%sp+104]
	mov	256, %o1
	mov	%i5, %o0
.LLVL689:
	ld	[%fp-4], %g1
	mov	%g3, %o4
	ld	[%l7 + %o3], %o3, %gdop(.LLC5)
	ld	[%l7 + %o5], %o5, %gdop(.LLC3)
	st	%g2, [%sp+92]
	st	%g3, [%sp+100]
	call	snprintf, 0
	 st	%g1, [%sp+108]
.LLVL690:
	sethi	%gdop_hix22(.LLC4), %o1
	mov	%i5, %o0
	xor	%o1, %gdop_lox10(.LLC4), %o1
	mov	183, %o2
	call	__assert, 0
	 ld	[%l7 + %o1], %o1, %gdop(.LLC4)
.LLVL691:
.LL437:
.LLBE388:
.LLBE389:
	.loc 1 183 0 discriminator 4
	return	%i7+8
	 and	%o0, 0xff, %o0
.LLVL692:
.LL439:
.LLBB390:
.LLBB385:
	.loc 1 183 0 discriminator 1
	add	%sp, -264, %sp
	stx	%g0, [%fp-8]
	sethi	%gdop_hix22(.LLC2), %g3
	st	%g1, [%sp+96]
	sethi	%gdop_hix22(.LLC0), %o2
	xor	%g3, %gdop_lox10(.LLC2), %g3
	ld	[%fp-8], %g1
.LLVL693:
	sethi	%gdop_hix22(.LLC1), %o3
	sethi	%gdop_hix22(.LLC3), %o5
	ld	[%l7 + %g3], %g3, %gdop(.LLC2)
	xor	%o2, %gdop_lox10(.LLC0), %o2
	xor	%o3, %gdop_lox10(.LLC1), %o3
	xor	%o5, %gdop_lox10(.LLC3), %o5
	add	%sp, 120, %i4
.LLVL694:
	ld	[%l7 + %o2], %o2, %gdop(.LLC0)
	st	%g1, [%sp+104]
	mov	256, %o1
	mov	%i4, %o0
.LLVL695:
	ld	[%fp-4], %g1
	mov	%g3, %o4
	ld	[%l7 + %o3], %o3, %gdop(.LLC1)
	ld	[%l7 + %o5], %o5, %gdop(.LLC3)
	st	%g2, [%sp+92]
	st	%g3, [%sp+100]
	call	snprintf, 0
	 st	%g1, [%sp+108]
.LLVL696:
	sethi	%gdop_hix22(.LLC4), %o1
	mov	%i4, %o0
	xor	%o1, %gdop_lox10(.LLC4), %o1
	mov	183, %o2
	call	__assert, 0
	 ld	[%l7 + %o1], %o1, %gdop(.LLC4)
	ba,pt	%xcc, .LL435
	 nop
.LLBE385:
.LLBE390:
	.cfi_endproc
.LLFE79:
	.size	atomic_inc_uchar_nv, .-atomic_inc_uchar_nv
	.align 4
	.align 32
	.global atomic_inc_16_nv
	.type	atomic_inc_16_nv, #function
	.proc	015
atomic_inc_16_nv:
.LLFB80:
	.loc 1 184 0 is_stmt 1
	.cfi_startproc
.LLVL697:
	save	%sp, -128, %sp
.LLCFI55:
	.cfi_def_cfa_register 30
	.cfi_window_save
	.cfi_register 15, 31
.LLBB391:
	sethi	%gdop_hix22(atomic_lock), %i4
.LLBE391:
	sethi	%hi(_GLOBAL_OFFSET_TABLE_-4), %l7
	call	__sparc_get_pc_thunk.l7
	 add	%l7, %lo(_GLOBAL_OFFSET_TABLE_+4), %l7
.LLBB393:
	.loc 1 184 0
	xor	%i4, %gdop_lox10(atomic_lock), %i4
	ld	[%l7 + %i4], %i4, %gdop(atomic_lock)
	call	pthread_mutex_lock, 0
	 mov	%i4, %o0
	sra	%o0, 31, %g2
.LLVL698:
	orcc	%g2, %o0, %g0
	bne,pn	%icc, .LL445
	 mov	%o0, %g1
.LLVL699:
.LL441:
.LLBE393:
	.loc 1 184 0 is_stmt 0 discriminator 2
	lduh	[%i0], %i5
.LLBB394:
	mov	%i4, %o0
.LLBE394:
	add	%i5, 1, %i5
	sth	%i5, [%i0]
.LLBB396:
	call	pthread_mutex_unlock, 0
	 nop
	sra	%o0, 31, %g2
.LLVL700:
	orcc	%g2, %o0, %g0
	be,pt	%icc, .LL443
	 mov	%o0, %g1
.LLBB395:
	.loc 1 184 0 discriminator 3
	add	%sp, -264, %sp
	stx	%g0, [%fp-8]
	sethi	%gdop_hix22(.LLC2), %g3
	st	%g1, [%sp+96]
	sethi	%gdop_hix22(.LLC0), %o2
	xor	%g3, %gdop_lox10(.LLC2), %g3
	ld	[%fp-8], %g1
	sethi	%gdop_hix22(.LLC5), %o3
	sethi	%gdop_hix22(.LLC3), %o5
	ld	[%l7 + %g3], %g3, %gdop(.LLC2)
	xor	%o2, %gdop_lox10(.LLC0), %o2
	xor	%o3, %gdop_lox10(.LLC5), %o3
	xor	%o5, %gdop_lox10(.LLC3), %o5
	add	%sp, 120, %i4
.LLVL701:
	ld	[%l7 + %o2], %o2, %gdop(.LLC0)
	st	%g1, [%sp+104]
	mov	256, %o1
	mov	%i4, %o0
.LLVL702:
	ld	[%fp-4], %g1
	mov	%g3, %o4
	ld	[%l7 + %o3], %o3, %gdop(.LLC5)
	ld	[%l7 + %o5], %o5, %gdop(.LLC3)
	st	%g2, [%sp+92]
	st	%g3, [%sp+100]
	call	snprintf, 0
	 st	%g1, [%sp+108]
.LLVL703:
	sethi	%gdop_hix22(.LLC4), %o1
	mov	%i4, %o0
	xor	%o1, %gdop_lox10(.LLC4), %o1
	mov	184, %o2
	call	__assert, 0
	 ld	[%l7 + %o1], %o1, %gdop(.LLC4)
.LLVL704:
.LL443:
.LLBE395:
.LLBE396:
	.loc 1 184 0 discriminator 4
	sll	%i5, 16, %i5
.LLVL705:
	return	%i7+8
	 srl	%o5, 16, %o0
.LLVL706:
.LL445:
.LLBB397:
.LLBB392:
	.loc 1 184 0 discriminator 1
	add	%sp, -264, %sp
	stx	%g0, [%fp-8]
	sethi	%gdop_hix22(.LLC2), %g3
	st	%g1, [%sp+96]
	sethi	%gdop_hix22(.LLC0), %o2
	xor	%g3, %gdop_lox10(.LLC2), %g3
	ld	[%fp-8], %g1
.LLVL707:
	sethi	%gdop_hix22(.LLC1), %o3
	sethi	%gdop_hix22(.LLC3), %o5
	ld	[%l7 + %g3], %g3, %gdop(.LLC2)
	xor	%o2, %gdop_lox10(.LLC0), %o2
	xor	%o3, %gdop_lox10(.LLC1), %o3
	xor	%o5, %gdop_lox10(.LLC3), %o5
	add	%sp, 120, %i5
.LLVL708:
	ld	[%l7 + %o2], %o2, %gdop(.LLC0)
	st	%g1, [%sp+104]
	mov	256, %o1
	mov	%i5, %o0
.LLVL709:
	ld	[%fp-4], %g1
	mov	%g3, %o4
	ld	[%l7 + %o3], %o3, %gdop(.LLC1)
	ld	[%l7 + %o5], %o5, %gdop(.LLC3)
	st	%g2, [%sp+92]
	st	%g3, [%sp+100]
	call	snprintf, 0
	 st	%g1, [%sp+108]
.LLVL710:
	sethi	%gdop_hix22(.LLC4), %o1
	mov	%i5, %o0
	xor	%o1, %gdop_lox10(.LLC4), %o1
	mov	184, %o2
	call	__assert, 0
	 ld	[%l7 + %o1], %o1, %gdop(.LLC4)
	ba,pt	%xcc, .LL441
	 nop
.LLBE392:
.LLBE397:
	.cfi_endproc
.LLFE80:
	.size	atomic_inc_16_nv, .-atomic_inc_16_nv
	.align 4
	.align 32
	.global atomic_inc_ushort_nv
	.type	atomic_inc_ushort_nv, #function
	.proc	015
atomic_inc_ushort_nv:
.LLFB81:
	.loc 1 185 0 is_stmt 1
	.cfi_startproc
.LLVL711:
	save	%sp, -128, %sp
.LLCFI56:
	.cfi_def_cfa_register 30
	.cfi_window_save
	.cfi_register 15, 31
.LLBB398:
	sethi	%gdop_hix22(atomic_lock), %i4
.LLBE398:
	sethi	%hi(_GLOBAL_OFFSET_TABLE_-4), %l7
	call	__sparc_get_pc_thunk.l7
	 add	%l7, %lo(_GLOBAL_OFFSET_TABLE_+4), %l7
.LLBB400:
	.loc 1 185 0
	xor	%i4, %gdop_lox10(atomic_lock), %i4
	ld	[%l7 + %i4], %i4, %gdop(atomic_lock)
	call	pthread_mutex_lock, 0
	 mov	%i4, %o0
	sra	%o0, 31, %g2
.LLVL712:
	orcc	%g2, %o0, %g0
	bne,pn	%icc, .LL451
	 mov	%o0, %g1
.LLVL713:
.LL447:
.LLBE400:
	.loc 1 185 0 is_stmt 0 discriminator 2
	lduh	[%i0], %i5
.LLBB401:
	mov	%i4, %o0
.LLBE401:
	add	%i5, 1, %i5
	sth	%i5, [%i0]
.LLBB403:
	call	pthread_mutex_unlock, 0
	 nop
	sra	%o0, 31, %g2
.LLVL714:
	orcc	%g2, %o0, %g0
	be,pt	%icc, .LL449
	 mov	%o0, %g1
.LLBB402:
	.loc 1 185 0 discriminator 3
	add	%sp, -264, %sp
	stx	%g0, [%fp-8]
	sethi	%gdop_hix22(.LLC2), %g3
	st	%g1, [%sp+96]
	sethi	%gdop_hix22(.LLC0), %o2
	xor	%g3, %gdop_lox10(.LLC2), %g3
	ld	[%fp-8], %g1
	sethi	%gdop_hix22(.LLC5), %o3
	sethi	%gdop_hix22(.LLC3), %o5
	ld	[%l7 + %g3], %g3, %gdop(.LLC2)
	xor	%o2, %gdop_lox10(.LLC0), %o2
	xor	%o3, %gdop_lox10(.LLC5), %o3
	xor	%o5, %gdop_lox10(.LLC3), %o5
	add	%sp, 120, %i4
.LLVL715:
	ld	[%l7 + %o2], %o2, %gdop(.LLC0)
	st	%g1, [%sp+104]
	mov	256, %o1
	mov	%i4, %o0
.LLVL716:
	ld	[%fp-4], %g1
	mov	%g3, %o4
	ld	[%l7 + %o3], %o3, %gdop(.LLC5)
	ld	[%l7 + %o5], %o5, %gdop(.LLC3)
	st	%g2, [%sp+92]
	st	%g3, [%sp+100]
	call	snprintf, 0
	 st	%g1, [%sp+108]
.LLVL717:
	sethi	%gdop_hix22(.LLC4), %o1
	mov	%i4, %o0
	xor	%o1, %gdop_lox10(.LLC4), %o1
	mov	185, %o2
	call	__assert, 0
	 ld	[%l7 + %o1], %o1, %gdop(.LLC4)
.LLVL718:
.LL449:
.LLBE402:
.LLBE403:
	.loc 1 185 0 discriminator 4
	sll	%i5, 16, %i5
.LLVL719:
	return	%i7+8
	 srl	%o5, 16, %o0
.LLVL720:
.LL451:
.LLBB404:
.LLBB399:
	.loc 1 185 0 discriminator 1
	add	%sp, -264, %sp
	stx	%g0, [%fp-8]
	sethi	%gdop_hix22(.LLC2), %g3
	st	%g1, [%sp+96]
	sethi	%gdop_hix22(.LLC0), %o2
	xor	%g3, %gdop_lox10(.LLC2), %g3
	ld	[%fp-8], %g1
.LLVL721:
	sethi	%gdop_hix22(.LLC1), %o3
	sethi	%gdop_hix22(.LLC3), %o5
	ld	[%l7 + %g3], %g3, %gdop(.LLC2)
	xor	%o2, %gdop_lox10(.LLC0), %o2
	xor	%o3, %gdop_lox10(.LLC1), %o3
	xor	%o5, %gdop_lox10(.LLC3), %o5
	add	%sp, 120, %i5
.LLVL722:
	ld	[%l7 + %o2], %o2, %gdop(.LLC0)
	st	%g1, [%sp+104]
	mov	256, %o1
	mov	%i5, %o0
.LLVL723:
	ld	[%fp-4], %g1
	mov	%g3, %o4
	ld	[%l7 + %o3], %o3, %gdop(.LLC1)
	ld	[%l7 + %o5], %o5, %gdop(.LLC3)
	st	%g2, [%sp+92]
	st	%g3, [%sp+100]
	call	snprintf, 0
	 st	%g1, [%sp+108]
.LLVL724:
	sethi	%gdop_hix22(.LLC4), %o1
	mov	%i5, %o0
	xor	%o1, %gdop_lox10(.LLC4), %o1
	mov	185, %o2
	call	__assert, 0
	 ld	[%l7 + %o1], %o1, %gdop(.LLC4)
	ba,pt	%xcc, .LL447
	 nop
.LLBE399:
.LLBE404:
	.cfi_endproc
.LLFE81:
	.size	atomic_inc_ushort_nv, .-atomic_inc_ushort_nv
	.align 4
	.align 32
	.global atomic_inc_32_nv
	.type	atomic_inc_32_nv, #function
	.proc	016
atomic_inc_32_nv:
.LLFB82:
	.loc 1 186 0 is_stmt 1
	.cfi_startproc
.LLVL725:
	save	%sp, -128, %sp
.LLCFI57:
	.cfi_def_cfa_register 30
	.cfi_window_save
	.cfi_register 15, 31
.LLBB405:
	sethi	%gdop_hix22(atomic_lock), %i4
.LLBE405:
	mov	%i0, %i5
	sethi	%hi(_GLOBAL_OFFSET_TABLE_-4), %l7
	call	__sparc_get_pc_thunk.l7
	 add	%l7, %lo(_GLOBAL_OFFSET_TABLE_+4), %l7
.LLBB407:
	.loc 1 186 0
	xor	%i4, %gdop_lox10(atomic_lock), %i4
	ld	[%l7 + %i4], %i4, %gdop(atomic_lock)
	call	pthread_mutex_lock, 0
	 mov	%i4, %o0
	sra	%o0, 31, %g2
.LLVL726:
	orcc	%g2, %o0, %g0
	bne,pn	%icc, .LL457
	 mov	%o0, %g1
.LLVL727:
.LL453:
.LLBE407:
	.loc 1 186 0 is_stmt 0 discriminator 2
	ld	[%i5], %i0
.LLBB408:
	mov	%i4, %o0
.LLBE408:
	add	%i0, 1, %i0
	st	%i0, [%i5]
.LLVL728:
.LLBB410:
	call	pthread_mutex_unlock, 0
	 nop
	sra	%o0, 31, %g2
.LLVL729:
	orcc	%g2, %o0, %g0
	be,pt	%icc, .LL459
	 mov	%o0, %g1
.LLBB409:
	.loc 1 186 0 discriminator 3
	add	%sp, -264, %sp
	stx	%g0, [%fp-8]
	sethi	%gdop_hix22(.LLC2), %g3
	st	%g1, [%sp+96]
	sethi	%gdop_hix22(.LLC0), %o2
	xor	%g3, %gdop_lox10(.LLC2), %g3
	ld	[%fp-8], %g1
	sethi	%gdop_hix22(.LLC5), %o3
	sethi	%gdop_hix22(.LLC3), %o5
	ld	[%l7 + %g3], %g3, %gdop(.LLC2)
	xor	%o2, %gdop_lox10(.LLC0), %o2
	xor	%o3, %gdop_lox10(.LLC5), %o3
	xor	%o5, %gdop_lox10(.LLC3), %o5
	add	%sp, 120, %i5
.LLVL730:
	ld	[%l7 + %o2], %o2, %gdop(.LLC0)
	st	%g1, [%sp+104]
	mov	256, %o1
	mov	%i5, %o0
.LLVL731:
	ld	[%fp-4], %g1
	mov	%g3, %o4
	ld	[%l7 + %o3], %o3, %gdop(.LLC5)
	ld	[%l7 + %o5], %o5, %gdop(.LLC3)
	st	%g2, [%sp+92]
	st	%g3, [%sp+100]
	call	snprintf, 0
	 st	%g1, [%sp+108]
.LLVL732:
	sethi	%gdop_hix22(.LLC4), %o1
	mov	%i5, %o0
	xor	%o1, %gdop_lox10(.LLC4), %o1
	mov	186, %o2
	call	__assert, 0
	 ld	[%l7 + %o1], %o1, %gdop(.LLC4)
.LL459:
.LLBE409:
.LLBE410:
	return	%i7+8
	 nop
.LLVL733:
.LL457:
.LLBB411:
.LLBB406:
	.loc 1 186 0 discriminator 1
	add	%sp, -264, %sp
	stx	%g0, [%fp-8]
	sethi	%gdop_hix22(.LLC2), %g3
	st	%g1, [%sp+96]
	sethi	%gdop_hix22(.LLC0), %o2
	xor	%g3, %gdop_lox10(.LLC2), %g3
	ld	[%fp-8], %g1
.LLVL734:
	sethi	%gdop_hix22(.LLC1), %o3
	sethi	%gdop_hix22(.LLC3), %o5
	ld	[%l7 + %g3], %g3, %gdop(.LLC2)
	xor	%o2, %gdop_lox10(.LLC0), %o2
	xor	%o3, %gdop_lox10(.LLC1), %o3
	xor	%o5, %gdop_lox10(.LLC3), %o5
	add	%sp, 120, %i0
.LLVL735:
	ld	[%l7 + %o2], %o2, %gdop(.LLC0)
	st	%g1, [%sp+104]
	mov	256, %o1
	mov	%i0, %o0
.LLVL736:
	ld	[%fp-4], %g1
	mov	%g3, %o4
	ld	[%l7 + %o3], %o3, %gdop(.LLC1)
	ld	[%l7 + %o5], %o5, %gdop(.LLC3)
	st	%g2, [%sp+92]
	st	%g3, [%sp+100]
	call	snprintf, 0
	 st	%g1, [%sp+108]
.LLVL737:
	sethi	%gdop_hix22(.LLC4), %o1
	mov	%i0, %o0
	xor	%o1, %gdop_lox10(.LLC4), %o1
	mov	186, %o2
	call	__assert, 0
	 ld	[%l7 + %o1], %o1, %gdop(.LLC4)
	ba,pt	%xcc, .LL453
	 nop
.LLBE406:
.LLBE411:
	.cfi_endproc
.LLFE82:
	.size	atomic_inc_32_nv, .-atomic_inc_32_nv
	.align 4
	.align 32
	.global atomic_inc_uint_nv
	.type	atomic_inc_uint_nv, #function
	.proc	016
atomic_inc_uint_nv:
.LLFB83:
	.loc 1 187 0 is_stmt 1
	.cfi_startproc
.LLVL738:
	save	%sp, -128, %sp
.LLCFI58:
	.cfi_def_cfa_register 30
	.cfi_window_save
	.cfi_register 15, 31
.LLBB412:
	sethi	%gdop_hix22(atomic_lock), %i4
.LLBE412:
	mov	%i0, %i5
	sethi	%hi(_GLOBAL_OFFSET_TABLE_-4), %l7
	call	__sparc_get_pc_thunk.l7
	 add	%l7, %lo(_GLOBAL_OFFSET_TABLE_+4), %l7
.LLBB414:
	.loc 1 187 0
	xor	%i4, %gdop_lox10(atomic_lock), %i4
	ld	[%l7 + %i4], %i4, %gdop(atomic_lock)
	call	pthread_mutex_lock, 0
	 mov	%i4, %o0
	sra	%o0, 31, %g2
.LLVL739:
	orcc	%g2, %o0, %g0
	bne,pn	%icc, .LL465
	 mov	%o0, %g1
.LLVL740:
.LL461:
.LLBE414:
	.loc 1 187 0 is_stmt 0 discriminator 2
	ld	[%i5], %i0
.LLBB415:
	mov	%i4, %o0
.LLBE415:
	add	%i0, 1, %i0
	st	%i0, [%i5]
.LLVL741:
.LLBB417:
	call	pthread_mutex_unlock, 0
	 nop
	sra	%o0, 31, %g2
.LLVL742:
	orcc	%g2, %o0, %g0
	be,pt	%icc, .LL467
	 mov	%o0, %g1
.LLBB416:
	.loc 1 187 0 discriminator 3
	add	%sp, -264, %sp
	stx	%g0, [%fp-8]
	sethi	%gdop_hix22(.LLC2), %g3
	st	%g1, [%sp+96]
	sethi	%gdop_hix22(.LLC0), %o2
	xor	%g3, %gdop_lox10(.LLC2), %g3
	ld	[%fp-8], %g1
	sethi	%gdop_hix22(.LLC5), %o3
	sethi	%gdop_hix22(.LLC3), %o5
	ld	[%l7 + %g3], %g3, %gdop(.LLC2)
	xor	%o2, %gdop_lox10(.LLC0), %o2
	xor	%o3, %gdop_lox10(.LLC5), %o3
	xor	%o5, %gdop_lox10(.LLC3), %o5
	add	%sp, 120, %i5
.LLVL743:
	ld	[%l7 + %o2], %o2, %gdop(.LLC0)
	st	%g1, [%sp+104]
	mov	256, %o1
	mov	%i5, %o0
.LLVL744:
	ld	[%fp-4], %g1
	mov	%g3, %o4
	ld	[%l7 + %o3], %o3, %gdop(.LLC5)
	ld	[%l7 + %o5], %o5, %gdop(.LLC3)
	st	%g2, [%sp+92]
	st	%g3, [%sp+100]
	call	snprintf, 0
	 st	%g1, [%sp+108]
.LLVL745:
	sethi	%gdop_hix22(.LLC4), %o1
	mov	%i5, %o0
	xor	%o1, %gdop_lox10(.LLC4), %o1
	mov	187, %o2
	call	__assert, 0
	 ld	[%l7 + %o1], %o1, %gdop(.LLC4)
.LL467:
.LLBE416:
.LLBE417:
	return	%i7+8
	 nop
.LLVL746:
.LL465:
.LLBB418:
.LLBB413:
	.loc 1 187 0 discriminator 1
	add	%sp, -264, %sp
	stx	%g0, [%fp-8]
	sethi	%gdop_hix22(.LLC2), %g3
	st	%g1, [%sp+96]
	sethi	%gdop_hix22(.LLC0), %o2
	xor	%g3, %gdop_lox10(.LLC2), %g3
	ld	[%fp-8], %g1
.LLVL747:
	sethi	%gdop_hix22(.LLC1), %o3
	sethi	%gdop_hix22(.LLC3), %o5
	ld	[%l7 + %g3], %g3, %gdop(.LLC2)
	xor	%o2, %gdop_lox10(.LLC0), %o2
	xor	%o3, %gdop_lox10(.LLC1), %o3
	xor	%o5, %gdop_lox10(.LLC3), %o5
	add	%sp, 120, %i0
.LLVL748:
	ld	[%l7 + %o2], %o2, %gdop(.LLC0)
	st	%g1, [%sp+104]
	mov	256, %o1
	mov	%i0, %o0
.LLVL749:
	ld	[%fp-4], %g1
	mov	%g3, %o4
	ld	[%l7 + %o3], %o3, %gdop(.LLC1)
	ld	[%l7 + %o5], %o5, %gdop(.LLC3)
	st	%g2, [%sp+92]
	st	%g3, [%sp+100]
	call	snprintf, 0
	 st	%g1, [%sp+108]
.LLVL750:
	sethi	%gdop_hix22(.LLC4), %o1
	mov	%i0, %o0
	xor	%o1, %gdop_lox10(.LLC4), %o1
	mov	187, %o2
	call	__assert, 0
	 ld	[%l7 + %o1], %o1, %gdop(.LLC4)
	ba,pt	%xcc, .LL461
	 nop
.LLBE413:
.LLBE418:
	.cfi_endproc
.LLFE83:
	.size	atomic_inc_uint_nv, .-atomic_inc_uint_nv
	.align 4
	.align 32
	.global atomic_inc_ulong_nv
	.type	atomic_inc_ulong_nv, #function
	.proc	016
atomic_inc_ulong_nv:
.LLFB84:
	.loc 1 188 0 is_stmt 1
	.cfi_startproc
.LLVL751:
	save	%sp, -128, %sp
.LLCFI59:
	.cfi_def_cfa_register 30
	.cfi_window_save
	.cfi_register 15, 31
.LLBB419:
	sethi	%gdop_hix22(atomic_lock), %i4
.LLBE419:
	mov	%i0, %i5
	sethi	%hi(_GLOBAL_OFFSET_TABLE_-4), %l7
	call	__sparc_get_pc_thunk.l7
	 add	%l7, %lo(_GLOBAL_OFFSET_TABLE_+4), %l7
.LLBB421:
	.loc 1 188 0
	xor	%i4, %gdop_lox10(atomic_lock), %i4
	ld	[%l7 + %i4], %i4, %gdop(atomic_lock)
	call	pthread_mutex_lock, 0
	 mov	%i4, %o0
	sra	%o0, 31, %g2
.LLVL752:
	orcc	%g2, %o0, %g0
	bne,pn	%icc, .LL473
	 mov	%o0, %g1
.LLVL753:
.LL469:
.LLBE421:
	.loc 1 188 0 is_stmt 0 discriminator 2
	ld	[%i5], %i0
.LLBB422:
	mov	%i4, %o0
.LLBE422:
	add	%i0, 1, %i0
	st	%i0, [%i5]
.LLVL754:
.LLBB424:
	call	pthread_mutex_unlock, 0
	 nop
	sra	%o0, 31, %g2
.LLVL755:
	orcc	%g2, %o0, %g0
	be,pt	%icc, .LL475
	 mov	%o0, %g1
.LLBB423:
	.loc 1 188 0 discriminator 3
	add	%sp, -264, %sp
	stx	%g0, [%fp-8]
	sethi	%gdop_hix22(.LLC2), %g3
	st	%g1, [%sp+96]
	sethi	%gdop_hix22(.LLC0), %o2
	xor	%g3, %gdop_lox10(.LLC2), %g3
	ld	[%fp-8], %g1
	sethi	%gdop_hix22(.LLC5), %o3
	sethi	%gdop_hix22(.LLC3), %o5
	ld	[%l7 + %g3], %g3, %gdop(.LLC2)
	xor	%o2, %gdop_lox10(.LLC0), %o2
	xor	%o3, %gdop_lox10(.LLC5), %o3
	xor	%o5, %gdop_lox10(.LLC3), %o5
	add	%sp, 120, %i5
.LLVL756:
	ld	[%l7 + %o2], %o2, %gdop(.LLC0)
	st	%g1, [%sp+104]
	mov	256, %o1
	mov	%i5, %o0
.LLVL757:
	ld	[%fp-4], %g1
	mov	%g3, %o4
	ld	[%l7 + %o3], %o3, %gdop(.LLC5)
	ld	[%l7 + %o5], %o5, %gdop(.LLC3)
	st	%g2, [%sp+92]
	st	%g3, [%sp+100]
	call	snprintf, 0
	 st	%g1, [%sp+108]
.LLVL758:
	sethi	%gdop_hix22(.LLC4), %o1
	mov	%i5, %o0
	xor	%o1, %gdop_lox10(.LLC4), %o1
	mov	188, %o2
	call	__assert, 0
	 ld	[%l7 + %o1], %o1, %gdop(.LLC4)
.LL475:
.LLBE423:
.LLBE424:
	return	%i7+8
	 nop
.LLVL759:
.LL473:
.LLBB425:
.LLBB420:
	.loc 1 188 0 discriminator 1
	add	%sp, -264, %sp
	stx	%g0, [%fp-8]
	sethi	%gdop_hix22(.LLC2), %g3
	st	%g1, [%sp+96]
	sethi	%gdop_hix22(.LLC0), %o2
	xor	%g3, %gdop_lox10(.LLC2), %g3
	ld	[%fp-8], %g1
.LLVL760:
	sethi	%gdop_hix22(.LLC1), %o3
	sethi	%gdop_hix22(.LLC3), %o5
	ld	[%l7 + %g3], %g3, %gdop(.LLC2)
	xor	%o2, %gdop_lox10(.LLC0), %o2
	xor	%o3, %gdop_lox10(.LLC1), %o3
	xor	%o5, %gdop_lox10(.LLC3), %o5
	add	%sp, 120, %i0
.LLVL761:
	ld	[%l7 + %o2], %o2, %gdop(.LLC0)
	st	%g1, [%sp+104]
	mov	256, %o1
	mov	%i0, %o0
.LLVL762:
	ld	[%fp-4], %g1
	mov	%g3, %o4
	ld	[%l7 + %o3], %o3, %gdop(.LLC1)
	ld	[%l7 + %o5], %o5, %gdop(.LLC3)
	st	%g2, [%sp+92]
	st	%g3, [%sp+100]
	call	snprintf, 0
	 st	%g1, [%sp+108]
.LLVL763:
	sethi	%gdop_hix22(.LLC4), %o1
	mov	%i0, %o0
	xor	%o1, %gdop_lox10(.LLC4), %o1
	mov	188, %o2
	call	__assert, 0
	 ld	[%l7 + %o1], %o1, %gdop(.LLC4)
	ba,pt	%xcc, .LL469
	 nop
.LLBE420:
.LLBE425:
	.cfi_endproc
.LLFE84:
	.size	atomic_inc_ulong_nv, .-atomic_inc_ulong_nv
	.align 4
	.align 32
	.global atomic_inc_64_nv
	.type	atomic_inc_64_nv, #function
	.proc	017
atomic_inc_64_nv:
.LLFB85:
	.loc 1 189 0 is_stmt 1
	.cfi_startproc
.LLVL764:
	save	%sp, -128, %sp
.LLCFI60:
	.cfi_def_cfa_register 30
	.cfi_window_save
	.cfi_register 15, 31
.LLBB426:
	sethi	%gdop_hix22(atomic_lock), %i3
.LLBE426:
	sethi	%hi(_GLOBAL_OFFSET_TABLE_-4), %l7
	call	__sparc_get_pc_thunk.l7
	 add	%l7, %lo(_GLOBAL_OFFSET_TABLE_+4), %l7
.LLBB428:
	.loc 1 189 0
	xor	%i3, %gdop_lox10(atomic_lock), %i3
	ld	[%l7 + %i3], %i3, %gdop(atomic_lock)
	call	pthread_mutex_lock, 0
	 mov	%i3, %o0
	sra	%o0, 31, %g2
.LLVL765:
	orcc	%g2, %o0, %g0
	bne,pn	%icc, .LL481
	 mov	%o0, %g1
.LLVL766:
.LL477:
.LLBE428:
	.loc 1 189 0 is_stmt 0 discriminator 2
	ldd	[%i0], %i4
.LLBB429:
	mov	%i3, %o0
.LLBE429:
	addcc	%i5, 1, %i5
	addx	%i4, 0, %i4
	std	%i4, [%i0]
.LLVL767:
.LLBB431:
	call	pthread_mutex_unlock, 0
	 nop
	sra	%o0, 31, %g2
.LLVL768:
	orcc	%g2, %o0, %g0
	be,pt	%icc, .LL479
	 mov	%o0, %g1
.LLBB430:
	.loc 1 189 0 discriminator 3
	add	%sp, -264, %sp
	stx	%g0, [%fp-8]
	sethi	%gdop_hix22(.LLC2), %g3
	st	%g1, [%sp+96]
	sethi	%gdop_hix22(.LLC0), %o2
	xor	%g3, %gdop_lox10(.LLC2), %g3
	ld	[%fp-8], %g1
	sethi	%gdop_hix22(.LLC5), %o3
	sethi	%gdop_hix22(.LLC3), %o5
	ld	[%l7 + %g3], %g3, %gdop(.LLC2)
	xor	%o2, %gdop_lox10(.LLC0), %o2
	xor	%o3, %gdop_lox10(.LLC5), %o3
	xor	%o5, %gdop_lox10(.LLC3), %o5
	add	%sp, 120, %i3
.LLVL769:
	ld	[%l7 + %o2], %o2, %gdop(.LLC0)
	st	%g1, [%sp+104]
	mov	256, %o1
	mov	%i3, %o0
.LLVL770:
	ld	[%fp-4], %g1
	mov	%g3, %o4
	ld	[%l7 + %o3], %o3, %gdop(.LLC5)
	ld	[%l7 + %o5], %o5, %gdop(.LLC3)
	st	%g2, [%sp+92]
	st	%g3, [%sp+100]
	call	snprintf, 0
	 st	%g1, [%sp+108]
.LLVL771:
	sethi	%gdop_hix22(.LLC4), %o1
	mov	%i3, %o0
	xor	%o1, %gdop_lox10(.LLC4), %o1
	mov	189, %o2
	call	__assert, 0
	 ld	[%l7 + %o1], %o1, %gdop(.LLC4)
.LLVL772:
.LL479:
.LLBE430:
.LLBE431:
	.loc 1 189 0 discriminator 4
	mov	%i4, %i0
.LLVL773:
	return	%i7+8
	 mov	%o5, %o1
.LLVL774:
.LL481:
.LLBB432:
.LLBB427:
	.loc 1 189 0 discriminator 1
	add	%sp, -264, %sp
	stx	%g0, [%fp-8]
	sethi	%gdop_hix22(.LLC2), %g3
	st	%g1, [%sp+96]
	sethi	%gdop_hix22(.LLC0), %o2
	xor	%g3, %gdop_lox10(.LLC2), %g3
	ld	[%fp-8], %g1
.LLVL775:
	sethi	%gdop_hix22(.LLC1), %o3
	sethi	%gdop_hix22(.LLC3), %o5
	ld	[%l7 + %g3], %g3, %gdop(.LLC2)
	xor	%o2, %gdop_lox10(.LLC0), %o2
	xor	%o3, %gdop_lox10(.LLC1), %o3
	xor	%o5, %gdop_lox10(.LLC3), %o5
	add	%sp, 120, %i4
.LLVL776:
	ld	[%l7 + %o2], %o2, %gdop(.LLC0)
	st	%g1, [%sp+104]
	mov	256, %o1
	mov	%i4, %o0
.LLVL777:
	ld	[%fp-4], %g1
	mov	%g3, %o4
	ld	[%l7 + %o3], %o3, %gdop(.LLC1)
	ld	[%l7 + %o5], %o5, %gdop(.LLC3)
	st	%g2, [%sp+92]
	st	%g3, [%sp+100]
	call	snprintf, 0
	 st	%g1, [%sp+108]
.LLVL778:
	sethi	%gdop_hix22(.LLC4), %o1
	mov	%i4, %o0
	xor	%o1, %gdop_lox10(.LLC4), %o1
	mov	189, %o2
	call	__assert, 0
	 ld	[%l7 + %o1], %o1, %gdop(.LLC4)
	ba,pt	%xcc, .LL477
	 nop
.LLBE427:
.LLBE432:
	.cfi_endproc
.LLFE85:
	.size	atomic_inc_64_nv, .-atomic_inc_64_nv
	.align 4
	.align 32
	.global atomic_dec_long_nv
	.type	atomic_dec_long_nv, #function
	.proc	016
atomic_dec_long_nv:
.LLFB86:
	.loc 1 202 0 is_stmt 1
	.cfi_startproc
.LLVL779:
	save	%sp, -128, %sp
.LLCFI61:
	.cfi_def_cfa_register 30
	.cfi_window_save
	.cfi_register 15, 31
.LLBB433:
	sethi	%gdop_hix22(atomic_lock), %i4
.LLBE433:
	mov	%i0, %i5
	sethi	%hi(_GLOBAL_OFFSET_TABLE_-4), %l7
	call	__sparc_get_pc_thunk.l7
	 add	%l7, %lo(_GLOBAL_OFFSET_TABLE_+4), %l7
.LLBB435:
	.loc 1 202 0
	xor	%i4, %gdop_lox10(atomic_lock), %i4
	ld	[%l7 + %i4], %i4, %gdop(atomic_lock)
	call	pthread_mutex_lock, 0
	 mov	%i4, %o0
	sra	%o0, 31, %g2
.LLVL780:
	orcc	%g2, %o0, %g0
	bne,pn	%icc, .LL487
	 mov	%o0, %g1
.LLVL781:
.LL483:
.LLBE435:
	.loc 1 202 0 is_stmt 0 discriminator 2
	ld	[%i5], %i0
.LLBB436:
	mov	%i4, %o0
.LLBE436:
	add	%i0, -1, %i0
	st	%i0, [%i5]
.LLVL782:
.LLBB438:
	call	pthread_mutex_unlock, 0
	 nop
	sra	%o0, 31, %g2
.LLVL783:
	orcc	%g2, %o0, %g0
	be,pt	%icc, .LL489
	 mov	%o0, %g1
.LLBB437:
	.loc 1 202 0 discriminator 3
	add	%sp, -264, %sp
	stx	%g0, [%fp-8]
	sethi	%gdop_hix22(.LLC2), %g3
	st	%g1, [%sp+96]
	sethi	%gdop_hix22(.LLC0), %o2
	xor	%g3, %gdop_lox10(.LLC2), %g3
	ld	[%fp-8], %g1
	sethi	%gdop_hix22(.LLC5), %o3
	sethi	%gdop_hix22(.LLC3), %o5
	ld	[%l7 + %g3], %g3, %gdop(.LLC2)
	xor	%o2, %gdop_lox10(.LLC0), %o2
	xor	%o3, %gdop_lox10(.LLC5), %o3
	xor	%o5, %gdop_lox10(.LLC3), %o5
	add	%sp, 120, %i5
.LLVL784:
	ld	[%l7 + %o2], %o2, %gdop(.LLC0)
	st	%g1, [%sp+104]
	mov	256, %o1
	mov	%i5, %o0
.LLVL785:
	ld	[%fp-4], %g1
	mov	%g3, %o4
	ld	[%l7 + %o3], %o3, %gdop(.LLC5)
	ld	[%l7 + %o5], %o5, %gdop(.LLC3)
	st	%g2, [%sp+92]
	st	%g3, [%sp+100]
	call	snprintf, 0
	 st	%g1, [%sp+108]
.LLVL786:
	sethi	%gdop_hix22(.LLC4), %o1
	mov	%i5, %o0
	xor	%o1, %gdop_lox10(.LLC4), %o1
	mov	202, %o2
	call	__assert, 0
	 ld	[%l7 + %o1], %o1, %gdop(.LLC4)
.LL489:
.LLBE437:
.LLBE438:
	return	%i7+8
	 nop
.LLVL787:
.LL487:
.LLBB439:
.LLBB434:
	.loc 1 202 0 discriminator 1
	add	%sp, -264, %sp
	stx	%g0, [%fp-8]
	sethi	%gdop_hix22(.LLC2), %g3
	st	%g1, [%sp+96]
	sethi	%gdop_hix22(.LLC0), %o2
	xor	%g3, %gdop_lox10(.LLC2), %g3
	ld	[%fp-8], %g1
.LLVL788:
	sethi	%gdop_hix22(.LLC1), %o3
	sethi	%gdop_hix22(.LLC3), %o5
	ld	[%l7 + %g3], %g3, %gdop(.LLC2)
	xor	%o2, %gdop_lox10(.LLC0), %o2
	xor	%o3, %gdop_lox10(.LLC1), %o3
	xor	%o5, %gdop_lox10(.LLC3), %o5
	add	%sp, 120, %i0
.LLVL789:
	ld	[%l7 + %o2], %o2, %gdop(.LLC0)
	st	%g1, [%sp+104]
	mov	256, %o1
	mov	%i0, %o0
.LLVL790:
	ld	[%fp-4], %g1
	mov	%g3, %o4
	ld	[%l7 + %o3], %o3, %gdop(.LLC1)
	ld	[%l7 + %o5], %o5, %gdop(.LLC3)
	st	%g2, [%sp+92]
	st	%g3, [%sp+100]
	call	snprintf, 0
	 st	%g1, [%sp+108]
.LLVL791:
	sethi	%gdop_hix22(.LLC4), %o1
	mov	%i0, %o0
	xor	%o1, %gdop_lox10(.LLC4), %o1
	mov	202, %o2
	call	__assert, 0
	 ld	[%l7 + %o1], %o1, %gdop(.LLC4)
	ba,pt	%xcc, .LL483
	 nop
.LLBE434:
.LLBE439:
	.cfi_endproc
.LLFE86:
	.size	atomic_dec_long_nv, .-atomic_dec_long_nv
	.align 4
	.align 32
	.global atomic_dec_8_nv
	.type	atomic_dec_8_nv, #function
	.proc	014
atomic_dec_8_nv:
.LLFB87:
	.loc 1 203 0 is_stmt 1
	.cfi_startproc
.LLVL792:
	save	%sp, -128, %sp
.LLCFI62:
	.cfi_def_cfa_register 30
	.cfi_window_save
	.cfi_register 15, 31
.LLBB440:
	sethi	%gdop_hix22(atomic_lock), %i5
.LLBE440:
	sethi	%hi(_GLOBAL_OFFSET_TABLE_-4), %l7
	call	__sparc_get_pc_thunk.l7
	 add	%l7, %lo(_GLOBAL_OFFSET_TABLE_+4), %l7
.LLBB442:
	.loc 1 203 0
	xor	%i5, %gdop_lox10(atomic_lock), %i5
	ld	[%l7 + %i5], %i5, %gdop(atomic_lock)
	call	pthread_mutex_lock, 0
	 mov	%i5, %o0
	sra	%o0, 31, %g2
.LLVL793:
	orcc	%g2, %o0, %g0
	bne,pn	%icc, .LL495
	 mov	%o0, %g1
.LLVL794:
.LL491:
.LLBE442:
	.loc 1 203 0 is_stmt 0 discriminator 2
	ldub	[%i0], %g1
.LLBB443:
	mov	%i5, %o0
.LLBE443:
	add	%g1, -1, %g1
	stb	%g1, [%i0]
.LLVL795:
.LLBB445:
	call	pthread_mutex_unlock, 0
	 mov	%g1, %i0
.LLVL796:
	sra	%o0, 31, %g2
.LLVL797:
	orcc	%g2, %o0, %g0
	be,pt	%icc, .LL493
	 mov	%o0, %g1
.LLBB444:
	.loc 1 203 0 discriminator 3
	add	%sp, -264, %sp
	stx	%g0, [%fp-8]
	sethi	%gdop_hix22(.LLC2), %g3
	st	%g1, [%sp+96]
	sethi	%gdop_hix22(.LLC0), %o2
	xor	%g3, %gdop_lox10(.LLC2), %g3
	ld	[%fp-8], %g1
	sethi	%gdop_hix22(.LLC5), %o3
	sethi	%gdop_hix22(.LLC3), %o5
	ld	[%l7 + %g3], %g3, %gdop(.LLC2)
	xor	%o2, %gdop_lox10(.LLC0), %o2
	xor	%o3, %gdop_lox10(.LLC5), %o3
	xor	%o5, %gdop_lox10(.LLC3), %o5
	add	%sp, 120, %i5
.LLVL798:
	ld	[%l7 + %o2], %o2, %gdop(.LLC0)
	st	%g1, [%sp+104]
	mov	256, %o1
	mov	%i5, %o0
.LLVL799:
	ld	[%fp-4], %g1
	mov	%g3, %o4
	ld	[%l7 + %o3], %o3, %gdop(.LLC5)
	ld	[%l7 + %o5], %o5, %gdop(.LLC3)
	st	%g2, [%sp+92]
	st	%g3, [%sp+100]
	call	snprintf, 0
	 st	%g1, [%sp+108]
.LLVL800:
	sethi	%gdop_hix22(.LLC4), %o1
	mov	%i5, %o0
	xor	%o1, %gdop_lox10(.LLC4), %o1
	mov	203, %o2
	call	__assert, 0
	 ld	[%l7 + %o1], %o1, %gdop(.LLC4)
.LLVL801:
.LL493:
.LLBE444:
.LLBE445:
	.loc 1 203 0 discriminator 4
	return	%i7+8
	 and	%o0, 0xff, %o0
.LLVL802:
.LL495:
.LLBB446:
.LLBB441:
	.loc 1 203 0 discriminator 1
	add	%sp, -264, %sp
	stx	%g0, [%fp-8]
	sethi	%gdop_hix22(.LLC2), %g3
	st	%g1, [%sp+96]
	sethi	%gdop_hix22(.LLC0), %o2
	xor	%g3, %gdop_lox10(.LLC2), %g3
	ld	[%fp-8], %g1
.LLVL803:
	sethi	%gdop_hix22(.LLC1), %o3
	sethi	%gdop_hix22(.LLC3), %o5
	ld	[%l7 + %g3], %g3, %gdop(.LLC2)
	xor	%o2, %gdop_lox10(.LLC0), %o2
	xor	%o3, %gdop_lox10(.LLC1), %o3
	xor	%o5, %gdop_lox10(.LLC3), %o5
	add	%sp, 120, %i4
.LLVL804:
	ld	[%l7 + %o2], %o2, %gdop(.LLC0)
	st	%g1, [%sp+104]
	mov	256, %o1
	mov	%i4, %o0
.LLVL805:
	ld	[%fp-4], %g1
	mov	%g3, %o4
	ld	[%l7 + %o3], %o3, %gdop(.LLC1)
	ld	[%l7 + %o5], %o5, %gdop(.LLC3)
	st	%g2, [%sp+92]
	st	%g3, [%sp+100]
	call	snprintf, 0
	 st	%g1, [%sp+108]
.LLVL806:
	sethi	%gdop_hix22(.LLC4), %o1
	mov	%i4, %o0
	xor	%o1, %gdop_lox10(.LLC4), %o1
	mov	203, %o2
	call	__assert, 0
	 ld	[%l7 + %o1], %o1, %gdop(.LLC4)
	ba,pt	%xcc, .LL491
	 nop
.LLBE441:
.LLBE446:
	.cfi_endproc
.LLFE87:
	.size	atomic_dec_8_nv, .-atomic_dec_8_nv
	.align 4
	.align 32
	.global atomic_dec_uchar_nv
	.type	atomic_dec_uchar_nv, #function
	.proc	014
atomic_dec_uchar_nv:
.LLFB88:
	.loc 1 204 0 is_stmt 1
	.cfi_startproc
.LLVL807:
	save	%sp, -128, %sp
.LLCFI63:
	.cfi_def_cfa_register 30
	.cfi_window_save
	.cfi_register 15, 31
.LLBB447:
	sethi	%gdop_hix22(atomic_lock), %i5
.LLBE447:
	sethi	%hi(_GLOBAL_OFFSET_TABLE_-4), %l7
	call	__sparc_get_pc_thunk.l7
	 add	%l7, %lo(_GLOBAL_OFFSET_TABLE_+4), %l7
.LLBB449:
	.loc 1 204 0
	xor	%i5, %gdop_lox10(atomic_lock), %i5
	ld	[%l7 + %i5], %i5, %gdop(atomic_lock)
	call	pthread_mutex_lock, 0
	 mov	%i5, %o0
	sra	%o0, 31, %g2
.LLVL808:
	orcc	%g2, %o0, %g0
	bne,pn	%icc, .LL501
	 mov	%o0, %g1
.LLVL809:
.LL497:
.LLBE449:
	.loc 1 204 0 is_stmt 0 discriminator 2
	ldub	[%i0], %g1
.LLBB450:
	mov	%i5, %o0
.LLBE450:
	add	%g1, -1, %g1
	stb	%g1, [%i0]
.LLVL810:
.LLBB452:
	call	pthread_mutex_unlock, 0
	 mov	%g1, %i0
.LLVL811:
	sra	%o0, 31, %g2
.LLVL812:
	orcc	%g2, %o0, %g0
	be,pt	%icc, .LL499
	 mov	%o0, %g1
.LLBB451:
	.loc 1 204 0 discriminator 3
	add	%sp, -264, %sp
	stx	%g0, [%fp-8]
	sethi	%gdop_hix22(.LLC2), %g3
	st	%g1, [%sp+96]
	sethi	%gdop_hix22(.LLC0), %o2
	xor	%g3, %gdop_lox10(.LLC2), %g3
	ld	[%fp-8], %g1
	sethi	%gdop_hix22(.LLC5), %o3
	sethi	%gdop_hix22(.LLC3), %o5
	ld	[%l7 + %g3], %g3, %gdop(.LLC2)
	xor	%o2, %gdop_lox10(.LLC0), %o2
	xor	%o3, %gdop_lox10(.LLC5), %o3
	xor	%o5, %gdop_lox10(.LLC3), %o5
	add	%sp, 120, %i5
.LLVL813:
	ld	[%l7 + %o2], %o2, %gdop(.LLC0)
	st	%g1, [%sp+104]
	mov	256, %o1
	mov	%i5, %o0
.LLVL814:
	ld	[%fp-4], %g1
	mov	%g3, %o4
	ld	[%l7 + %o3], %o3, %gdop(.LLC5)
	ld	[%l7 + %o5], %o5, %gdop(.LLC3)
	st	%g2, [%sp+92]
	st	%g3, [%sp+100]
	call	snprintf, 0
	 st	%g1, [%sp+108]
.LLVL815:
	sethi	%gdop_hix22(.LLC4), %o1
	mov	%i5, %o0
	xor	%o1, %gdop_lox10(.LLC4), %o1
	mov	204, %o2
	call	__assert, 0
	 ld	[%l7 + %o1], %o1, %gdop(.LLC4)
.LLVL816:
.LL499:
.LLBE451:
.LLBE452:
	.loc 1 204 0 discriminator 4
	return	%i7+8
	 and	%o0, 0xff, %o0
.LLVL817:
.LL501:
.LLBB453:
.LLBB448:
	.loc 1 204 0 discriminator 1
	add	%sp, -264, %sp
	stx	%g0, [%fp-8]
	sethi	%gdop_hix22(.LLC2), %g3
	st	%g1, [%sp+96]
	sethi	%gdop_hix22(.LLC0), %o2
	xor	%g3, %gdop_lox10(.LLC2), %g3
	ld	[%fp-8], %g1
.LLVL818:
	sethi	%gdop_hix22(.LLC1), %o3
	sethi	%gdop_hix22(.LLC3), %o5
	ld	[%l7 + %g3], %g3, %gdop(.LLC2)
	xor	%o2, %gdop_lox10(.LLC0), %o2
	xor	%o3, %gdop_lox10(.LLC1), %o3
	xor	%o5, %gdop_lox10(.LLC3), %o5
	add	%sp, 120, %i4
.LLVL819:
	ld	[%l7 + %o2], %o2, %gdop(.LLC0)
	st	%g1, [%sp+104]
	mov	256, %o1
	mov	%i4, %o0
.LLVL820:
	ld	[%fp-4], %g1
	mov	%g3, %o4
	ld	[%l7 + %o3], %o3, %gdop(.LLC1)
	ld	[%l7 + %o5], %o5, %gdop(.LLC3)
	st	%g2, [%sp+92]
	st	%g3, [%sp+100]
	call	snprintf, 0
	 st	%g1, [%sp+108]
.LLVL821:
	sethi	%gdop_hix22(.LLC4), %o1
	mov	%i4, %o0
	xor	%o1, %gdop_lox10(.LLC4), %o1
	mov	204, %o2
	call	__assert, 0
	 ld	[%l7 + %o1], %o1, %gdop(.LLC4)
	ba,pt	%xcc, .LL497
	 nop
.LLBE448:
.LLBE453:
	.cfi_endproc
.LLFE88:
	.size	atomic_dec_uchar_nv, .-atomic_dec_uchar_nv
	.align 4
	.align 32
	.global atomic_dec_16_nv
	.type	atomic_dec_16_nv, #function
	.proc	015
atomic_dec_16_nv:
.LLFB89:
	.loc 1 205 0 is_stmt 1
	.cfi_startproc
.LLVL822:
	save	%sp, -128, %sp
.LLCFI64:
	.cfi_def_cfa_register 30
	.cfi_window_save
	.cfi_register 15, 31
.LLBB454:
	sethi	%gdop_hix22(atomic_lock), %i4
.LLBE454:
	sethi	%hi(_GLOBAL_OFFSET_TABLE_-4), %l7
	call	__sparc_get_pc_thunk.l7
	 add	%l7, %lo(_GLOBAL_OFFSET_TABLE_+4), %l7
.LLBB456:
	.loc 1 205 0
	xor	%i4, %gdop_lox10(atomic_lock), %i4
	ld	[%l7 + %i4], %i4, %gdop(atomic_lock)
	call	pthread_mutex_lock, 0
	 mov	%i4, %o0
	sra	%o0, 31, %g2
.LLVL823:
	orcc	%g2, %o0, %g0
	bne,pn	%icc, .LL507
	 mov	%o0, %g1
.LLVL824:
.LL503:
.LLBE456:
	.loc 1 205 0 is_stmt 0 discriminator 2
	lduh	[%i0], %i5
.LLBB457:
	mov	%i4, %o0
.LLBE457:
	add	%i5, -1, %i5
	sth	%i5, [%i0]
.LLBB459:
	call	pthread_mutex_unlock, 0
	 nop
	sra	%o0, 31, %g2
.LLVL825:
	orcc	%g2, %o0, %g0
	be,pt	%icc, .LL505
	 mov	%o0, %g1
.LLBB458:
	.loc 1 205 0 discriminator 3
	add	%sp, -264, %sp
	stx	%g0, [%fp-8]
	sethi	%gdop_hix22(.LLC2), %g3
	st	%g1, [%sp+96]
	sethi	%gdop_hix22(.LLC0), %o2
	xor	%g3, %gdop_lox10(.LLC2), %g3
	ld	[%fp-8], %g1
	sethi	%gdop_hix22(.LLC5), %o3
	sethi	%gdop_hix22(.LLC3), %o5
	ld	[%l7 + %g3], %g3, %gdop(.LLC2)
	xor	%o2, %gdop_lox10(.LLC0), %o2
	xor	%o3, %gdop_lox10(.LLC5), %o3
	xor	%o5, %gdop_lox10(.LLC3), %o5
	add	%sp, 120, %i4
.LLVL826:
	ld	[%l7 + %o2], %o2, %gdop(.LLC0)
	st	%g1, [%sp+104]
	mov	256, %o1
	mov	%i4, %o0
.LLVL827:
	ld	[%fp-4], %g1
	mov	%g3, %o4
	ld	[%l7 + %o3], %o3, %gdop(.LLC5)
	ld	[%l7 + %o5], %o5, %gdop(.LLC3)
	st	%g2, [%sp+92]
	st	%g3, [%sp+100]
	call	snprintf, 0
	 st	%g1, [%sp+108]
.LLVL828:
	sethi	%gdop_hix22(.LLC4), %o1
	mov	%i4, %o0
	xor	%o1, %gdop_lox10(.LLC4), %o1
	mov	205, %o2
	call	__assert, 0
	 ld	[%l7 + %o1], %o1, %gdop(.LLC4)
.LLVL829:
.LL505:
.LLBE458:
.LLBE459:
	.loc 1 205 0 discriminator 4
	sll	%i5, 16, %i5
.LLVL830:
	return	%i7+8
	 srl	%o5, 16, %o0
.LLVL831:
.LL507:
.LLBB460:
.LLBB455:
	.loc 1 205 0 discriminator 1
	add	%sp, -264, %sp
	stx	%g0, [%fp-8]
	sethi	%gdop_hix22(.LLC2), %g3
	st	%g1, [%sp+96]
	sethi	%gdop_hix22(.LLC0), %o2
	xor	%g3, %gdop_lox10(.LLC2), %g3
	ld	[%fp-8], %g1
.LLVL832:
	sethi	%gdop_hix22(.LLC1), %o3
	sethi	%gdop_hix22(.LLC3), %o5
	ld	[%l7 + %g3], %g3, %gdop(.LLC2)
	xor	%o2, %gdop_lox10(.LLC0), %o2
	xor	%o3, %gdop_lox10(.LLC1), %o3
	xor	%o5, %gdop_lox10(.LLC3), %o5
	add	%sp, 120, %i5
.LLVL833:
	ld	[%l7 + %o2], %o2, %gdop(.LLC0)
	st	%g1, [%sp+104]
	mov	256, %o1
	mov	%i5, %o0
.LLVL834:
	ld	[%fp-4], %g1
	mov	%g3, %o4
	ld	[%l7 + %o3], %o3, %gdop(.LLC1)
	ld	[%l7 + %o5], %o5, %gdop(.LLC3)
	st	%g2, [%sp+92]
	st	%g3, [%sp+100]
	call	snprintf, 0
	 st	%g1, [%sp+108]
.LLVL835:
	sethi	%gdop_hix22(.LLC4), %o1
	mov	%i5, %o0
	xor	%o1, %gdop_lox10(.LLC4), %o1
	mov	205, %o2
	call	__assert, 0
	 ld	[%l7 + %o1], %o1, %gdop(.LLC4)
	ba,pt	%xcc, .LL503
	 nop
.LLBE455:
.LLBE460:
	.cfi_endproc
.LLFE89:
	.size	atomic_dec_16_nv, .-atomic_dec_16_nv
	.align 4
	.align 32
	.global atomic_dec_ushort_nv
	.type	atomic_dec_ushort_nv, #function
	.proc	015
atomic_dec_ushort_nv:
.LLFB90:
	.loc 1 206 0 is_stmt 1
	.cfi_startproc
.LLVL836:
	save	%sp, -128, %sp
.LLCFI65:
	.cfi_def_cfa_register 30
	.cfi_window_save
	.cfi_register 15, 31
.LLBB461:
	sethi	%gdop_hix22(atomic_lock), %i4
.LLBE461:
	sethi	%hi(_GLOBAL_OFFSET_TABLE_-4), %l7
	call	__sparc_get_pc_thunk.l7
	 add	%l7, %lo(_GLOBAL_OFFSET_TABLE_+4), %l7
.LLBB463:
	.loc 1 206 0
	xor	%i4, %gdop_lox10(atomic_lock), %i4
	ld	[%l7 + %i4], %i4, %gdop(atomic_lock)
	call	pthread_mutex_lock, 0
	 mov	%i4, %o0
	sra	%o0, 31, %g2
.LLVL837:
	orcc	%g2, %o0, %g0
	bne,pn	%icc, .LL513
	 mov	%o0, %g1
.LLVL838:
.LL509:
.LLBE463:
	.loc 1 206 0 is_stmt 0 discriminator 2
	lduh	[%i0], %i5
.LLBB464:
	mov	%i4, %o0
.LLBE464:
	add	%i5, -1, %i5
	sth	%i5, [%i0]
.LLBB466:
	call	pthread_mutex_unlock, 0
	 nop
	sra	%o0, 31, %g2
.LLVL839:
	orcc	%g2, %o0, %g0
	be,pt	%icc, .LL511
	 mov	%o0, %g1
.LLBB465:
	.loc 1 206 0 discriminator 3
	add	%sp, -264, %sp
	stx	%g0, [%fp-8]
	sethi	%gdop_hix22(.LLC2), %g3
	st	%g1, [%sp+96]
	sethi	%gdop_hix22(.LLC0), %o2
	xor	%g3, %gdop_lox10(.LLC2), %g3
	ld	[%fp-8], %g1
	sethi	%gdop_hix22(.LLC5), %o3
	sethi	%gdop_hix22(.LLC3), %o5
	ld	[%l7 + %g3], %g3, %gdop(.LLC2)
	xor	%o2, %gdop_lox10(.LLC0), %o2
	xor	%o3, %gdop_lox10(.LLC5), %o3
	xor	%o5, %gdop_lox10(.LLC3), %o5
	add	%sp, 120, %i4
.LLVL840:
	ld	[%l7 + %o2], %o2, %gdop(.LLC0)
	st	%g1, [%sp+104]
	mov	256, %o1
	mov	%i4, %o0
.LLVL841:
	ld	[%fp-4], %g1
	mov	%g3, %o4
	ld	[%l7 + %o3], %o3, %gdop(.LLC5)
	ld	[%l7 + %o5], %o5, %gdop(.LLC3)
	st	%g2, [%sp+92]
	st	%g3, [%sp+100]
	call	snprintf, 0
	 st	%g1, [%sp+108]
.LLVL842:
	sethi	%gdop_hix22(.LLC4), %o1
	mov	%i4, %o0
	xor	%o1, %gdop_lox10(.LLC4), %o1
	mov	206, %o2
	call	__assert, 0
	 ld	[%l7 + %o1], %o1, %gdop(.LLC4)
.LLVL843:
.LL511:
.LLBE465:
.LLBE466:
	.loc 1 206 0 discriminator 4
	sll	%i5, 16, %i5
.LLVL844:
	return	%i7+8
	 srl	%o5, 16, %o0
.LLVL845:
.LL513:
.LLBB467:
.LLBB462:
	.loc 1 206 0 discriminator 1
	add	%sp, -264, %sp
	stx	%g0, [%fp-8]
	sethi	%gdop_hix22(.LLC2), %g3
	st	%g1, [%sp+96]
	sethi	%gdop_hix22(.LLC0), %o2
	xor	%g3, %gdop_lox10(.LLC2), %g3
	ld	[%fp-8], %g1
.LLVL846:
	sethi	%gdop_hix22(.LLC1), %o3
	sethi	%gdop_hix22(.LLC3), %o5
	ld	[%l7 + %g3], %g3, %gdop(.LLC2)
	xor	%o2, %gdop_lox10(.LLC0), %o2
	xor	%o3, %gdop_lox10(.LLC1), %o3
	xor	%o5, %gdop_lox10(.LLC3), %o5
	add	%sp, 120, %i5
.LLVL847:
	ld	[%l7 + %o2], %o2, %gdop(.LLC0)
	st	%g1, [%sp+104]
	mov	256, %o1
	mov	%i5, %o0
.LLVL848:
	ld	[%fp-4], %g1
	mov	%g3, %o4
	ld	[%l7 + %o3], %o3, %gdop(.LLC1)
	ld	[%l7 + %o5], %o5, %gdop(.LLC3)
	st	%g2, [%sp+92]
	st	%g3, [%sp+100]
	call	snprintf, 0
	 st	%g1, [%sp+108]
.LLVL849:
	sethi	%gdop_hix22(.LLC4), %o1
	mov	%i5, %o0
	xor	%o1, %gdop_lox10(.LLC4), %o1
	mov	206, %o2
	call	__assert, 0
	 ld	[%l7 + %o1], %o1, %gdop(.LLC4)
	ba,pt	%xcc, .LL509
	 nop
.LLBE462:
.LLBE467:
	.cfi_endproc
.LLFE90:
	.size	atomic_dec_ushort_nv, .-atomic_dec_ushort_nv
	.align 4
	.align 32
	.global atomic_dec_32_nv
	.type	atomic_dec_32_nv, #function
	.proc	016
atomic_dec_32_nv:
.LLFB91:
	.loc 1 207 0 is_stmt 1
	.cfi_startproc
.LLVL850:
	save	%sp, -128, %sp
.LLCFI66:
	.cfi_def_cfa_register 30
	.cfi_window_save
	.cfi_register 15, 31
.LLBB468:
	sethi	%gdop_hix22(atomic_lock), %i4
.LLBE468:
	mov	%i0, %i5
	sethi	%hi(_GLOBAL_OFFSET_TABLE_-4), %l7
	call	__sparc_get_pc_thunk.l7
	 add	%l7, %lo(_GLOBAL_OFFSET_TABLE_+4), %l7
.LLBB470:
	.loc 1 207 0
	xor	%i4, %gdop_lox10(atomic_lock), %i4
	ld	[%l7 + %i4], %i4, %gdop(atomic_lock)
	call	pthread_mutex_lock, 0
	 mov	%i4, %o0
	sra	%o0, 31, %g2
.LLVL851:
	orcc	%g2, %o0, %g0
	bne,pn	%icc, .LL519
	 mov	%o0, %g1
.LLVL852:
.LL515:
.LLBE470:
	.loc 1 207 0 is_stmt 0 discriminator 2
	ld	[%i5], %i0
.LLBB471:
	mov	%i4, %o0
.LLBE471:
	add	%i0, -1, %i0
	st	%i0, [%i5]
.LLVL853:
.LLBB473:
	call	pthread_mutex_unlock, 0
	 nop
	sra	%o0, 31, %g2
.LLVL854:
	orcc	%g2, %o0, %g0
	be,pt	%icc, .LL521
	 mov	%o0, %g1
.LLBB472:
	.loc 1 207 0 discriminator 3
	add	%sp, -264, %sp
	stx	%g0, [%fp-8]
	sethi	%gdop_hix22(.LLC2), %g3
	st	%g1, [%sp+96]
	sethi	%gdop_hix22(.LLC0), %o2
	xor	%g3, %gdop_lox10(.LLC2), %g3
	ld	[%fp-8], %g1
	sethi	%gdop_hix22(.LLC5), %o3
	sethi	%gdop_hix22(.LLC3), %o5
	ld	[%l7 + %g3], %g3, %gdop(.LLC2)
	xor	%o2, %gdop_lox10(.LLC0), %o2
	xor	%o3, %gdop_lox10(.LLC5), %o3
	xor	%o5, %gdop_lox10(.LLC3), %o5
	add	%sp, 120, %i5
.LLVL855:
	ld	[%l7 + %o2], %o2, %gdop(.LLC0)
	st	%g1, [%sp+104]
	mov	256, %o1
	mov	%i5, %o0
.LLVL856:
	ld	[%fp-4], %g1
	mov	%g3, %o4
	ld	[%l7 + %o3], %o3, %gdop(.LLC5)
	ld	[%l7 + %o5], %o5, %gdop(.LLC3)
	st	%g2, [%sp+92]
	st	%g3, [%sp+100]
	call	snprintf, 0
	 st	%g1, [%sp+108]
.LLVL857:
	sethi	%gdop_hix22(.LLC4), %o1
	mov	%i5, %o0
	xor	%o1, %gdop_lox10(.LLC4), %o1
	mov	207, %o2
	call	__assert, 0
	 ld	[%l7 + %o1], %o1, %gdop(.LLC4)
.LL521:
.LLBE472:
.LLBE473:
	return	%i7+8
	 nop
.LLVL858:
.LL519:
.LLBB474:
.LLBB469:
	.loc 1 207 0 discriminator 1
	add	%sp, -264, %sp
	stx	%g0, [%fp-8]
	sethi	%gdop_hix22(.LLC2), %g3
	st	%g1, [%sp+96]
	sethi	%gdop_hix22(.LLC0), %o2
	xor	%g3, %gdop_lox10(.LLC2), %g3
	ld	[%fp-8], %g1
.LLVL859:
	sethi	%gdop_hix22(.LLC1), %o3
	sethi	%gdop_hix22(.LLC3), %o5
	ld	[%l7 + %g3], %g3, %gdop(.LLC2)
	xor	%o2, %gdop_lox10(.LLC0), %o2
	xor	%o3, %gdop_lox10(.LLC1), %o3
	xor	%o5, %gdop_lox10(.LLC3), %o5
	add	%sp, 120, %i0
.LLVL860:
	ld	[%l7 + %o2], %o2, %gdop(.LLC0)
	st	%g1, [%sp+104]
	mov	256, %o1
	mov	%i0, %o0
.LLVL861:
	ld	[%fp-4], %g1
	mov	%g3, %o4
	ld	[%l7 + %o3], %o3, %gdop(.LLC1)
	ld	[%l7 + %o5], %o5, %gdop(.LLC3)
	st	%g2, [%sp+92]
	st	%g3, [%sp+100]
	call	snprintf, 0
	 st	%g1, [%sp+108]
.LLVL862:
	sethi	%gdop_hix22(.LLC4), %o1
	mov	%i0, %o0
	xor	%o1, %gdop_lox10(.LLC4), %o1
	mov	207, %o2
	call	__assert, 0
	 ld	[%l7 + %o1], %o1, %gdop(.LLC4)
	ba,pt	%xcc, .LL515
	 nop
.LLBE469:
.LLBE474:
	.cfi_endproc
.LLFE91:
	.size	atomic_dec_32_nv, .-atomic_dec_32_nv
	.align 4
	.align 32
	.global atomic_dec_uint_nv
	.type	atomic_dec_uint_nv, #function
	.proc	016
atomic_dec_uint_nv:
.LLFB92:
	.loc 1 208 0 is_stmt 1
	.cfi_startproc
.LLVL863:
	save	%sp, -128, %sp
.LLCFI67:
	.cfi_def_cfa_register 30
	.cfi_window_save
	.cfi_register 15, 31
.LLBB475:
	sethi	%gdop_hix22(atomic_lock), %i4
.LLBE475:
	mov	%i0, %i5
	sethi	%hi(_GLOBAL_OFFSET_TABLE_-4), %l7
	call	__sparc_get_pc_thunk.l7
	 add	%l7, %lo(_GLOBAL_OFFSET_TABLE_+4), %l7
.LLBB477:
	.loc 1 208 0
	xor	%i4, %gdop_lox10(atomic_lock), %i4
	ld	[%l7 + %i4], %i4, %gdop(atomic_lock)
	call	pthread_mutex_lock, 0
	 mov	%i4, %o0
	sra	%o0, 31, %g2
.LLVL864:
	orcc	%g2, %o0, %g0
	bne,pn	%icc, .LL527
	 mov	%o0, %g1
.LLVL865:
.LL523:
.LLBE477:
	.loc 1 208 0 is_stmt 0 discriminator 2
	ld	[%i5], %i0
.LLBB478:
	mov	%i4, %o0
.LLBE478:
	add	%i0, -1, %i0
	st	%i0, [%i5]
.LLVL866:
.LLBB480:
	call	pthread_mutex_unlock, 0
	 nop
	sra	%o0, 31, %g2
.LLVL867:
	orcc	%g2, %o0, %g0
	be,pt	%icc, .LL529
	 mov	%o0, %g1
.LLBB479:
	.loc 1 208 0 discriminator 3
	add	%sp, -264, %sp
	stx	%g0, [%fp-8]
	sethi	%gdop_hix22(.LLC2), %g3
	st	%g1, [%sp+96]
	sethi	%gdop_hix22(.LLC0), %o2
	xor	%g3, %gdop_lox10(.LLC2), %g3
	ld	[%fp-8], %g1
	sethi	%gdop_hix22(.LLC5), %o3
	sethi	%gdop_hix22(.LLC3), %o5
	ld	[%l7 + %g3], %g3, %gdop(.LLC2)
	xor	%o2, %gdop_lox10(.LLC0), %o2
	xor	%o3, %gdop_lox10(.LLC5), %o3
	xor	%o5, %gdop_lox10(.LLC3), %o5
	add	%sp, 120, %i5
.LLVL868:
	ld	[%l7 + %o2], %o2, %gdop(.LLC0)
	st	%g1, [%sp+104]
	mov	256, %o1
	mov	%i5, %o0
.LLVL869:
	ld	[%fp-4], %g1
	mov	%g3, %o4
	ld	[%l7 + %o3], %o3, %gdop(.LLC5)
	ld	[%l7 + %o5], %o5, %gdop(.LLC3)
	st	%g2, [%sp+92]
	st	%g3, [%sp+100]
	call	snprintf, 0
	 st	%g1, [%sp+108]
.LLVL870:
	sethi	%gdop_hix22(.LLC4), %o1
	mov	%i5, %o0
	xor	%o1, %gdop_lox10(.LLC4), %o1
	mov	208, %o2
	call	__assert, 0
	 ld	[%l7 + %o1], %o1, %gdop(.LLC4)
.LL529:
.LLBE479:
.LLBE480:
	return	%i7+8
	 nop
.LLVL871:
.LL527:
.LLBB481:
.LLBB476:
	.loc 1 208 0 discriminator 1
	add	%sp, -264, %sp
	stx	%g0, [%fp-8]
	sethi	%gdop_hix22(.LLC2), %g3
	st	%g1, [%sp+96]
	sethi	%gdop_hix22(.LLC0), %o2
	xor	%g3, %gdop_lox10(.LLC2), %g3
	ld	[%fp-8], %g1
.LLVL872:
	sethi	%gdop_hix22(.LLC1), %o3
	sethi	%gdop_hix22(.LLC3), %o5
	ld	[%l7 + %g3], %g3, %gdop(.LLC2)
	xor	%o2, %gdop_lox10(.LLC0), %o2
	xor	%o3, %gdop_lox10(.LLC1), %o3
	xor	%o5, %gdop_lox10(.LLC3), %o5
	add	%sp, 120, %i0
.LLVL873:
	ld	[%l7 + %o2], %o2, %gdop(.LLC0)
	st	%g1, [%sp+104]
	mov	256, %o1
	mov	%i0, %o0
.LLVL874:
	ld	[%fp-4], %g1
	mov	%g3, %o4
	ld	[%l7 + %o3], %o3, %gdop(.LLC1)
	ld	[%l7 + %o5], %o5, %gdop(.LLC3)
	st	%g2, [%sp+92]
	st	%g3, [%sp+100]
	call	snprintf, 0
	 st	%g1, [%sp+108]
.LLVL875:
	sethi	%gdop_hix22(.LLC4), %o1
	mov	%i0, %o0
	xor	%o1, %gdop_lox10(.LLC4), %o1
	mov	208, %o2
	call	__assert, 0
	 ld	[%l7 + %o1], %o1, %gdop(.LLC4)
	ba,pt	%xcc, .LL523
	 nop
.LLBE476:
.LLBE481:
	.cfi_endproc
.LLFE92:
	.size	atomic_dec_uint_nv, .-atomic_dec_uint_nv
	.align 4
	.align 32
	.global atomic_dec_ulong_nv
	.type	atomic_dec_ulong_nv, #function
	.proc	016
atomic_dec_ulong_nv:
.LLFB93:
	.loc 1 209 0 is_stmt 1
	.cfi_startproc
.LLVL876:
	save	%sp, -128, %sp
.LLCFI68:
	.cfi_def_cfa_register 30
	.cfi_window_save
	.cfi_register 15, 31
.LLBB482:
	sethi	%gdop_hix22(atomic_lock), %i4
.LLBE482:
	mov	%i0, %i5
	sethi	%hi(_GLOBAL_OFFSET_TABLE_-4), %l7
	call	__sparc_get_pc_thunk.l7
	 add	%l7, %lo(_GLOBAL_OFFSET_TABLE_+4), %l7
.LLBB484:
	.loc 1 209 0
	xor	%i4, %gdop_lox10(atomic_lock), %i4
	ld	[%l7 + %i4], %i4, %gdop(atomic_lock)
	call	pthread_mutex_lock, 0
	 mov	%i4, %o0
	sra	%o0, 31, %g2
.LLVL877:
	orcc	%g2, %o0, %g0
	bne,pn	%icc, .LL535
	 mov	%o0, %g1
.LLVL878:
.LL531:
.LLBE484:
	.loc 1 209 0 is_stmt 0 discriminator 2
	ld	[%i5], %i0
.LLBB485:
	mov	%i4, %o0
.LLBE485:
	add	%i0, -1, %i0
	st	%i0, [%i5]
.LLVL879:
.LLBB487:
	call	pthread_mutex_unlock, 0
	 nop
	sra	%o0, 31, %g2
.LLVL880:
	orcc	%g2, %o0, %g0
	be,pt	%icc, .LL537
	 mov	%o0, %g1
.LLBB486:
	.loc 1 209 0 discriminator 3
	add	%sp, -264, %sp
	stx	%g0, [%fp-8]
	sethi	%gdop_hix22(.LLC2), %g3
	st	%g1, [%sp+96]
	sethi	%gdop_hix22(.LLC0), %o2
	xor	%g3, %gdop_lox10(.LLC2), %g3
	ld	[%fp-8], %g1
	sethi	%gdop_hix22(.LLC5), %o3
	sethi	%gdop_hix22(.LLC3), %o5
	ld	[%l7 + %g3], %g3, %gdop(.LLC2)
	xor	%o2, %gdop_lox10(.LLC0), %o2
	xor	%o3, %gdop_lox10(.LLC5), %o3
	xor	%o5, %gdop_lox10(.LLC3), %o5
	add	%sp, 120, %i5
.LLVL881:
	ld	[%l7 + %o2], %o2, %gdop(.LLC0)
	st	%g1, [%sp+104]
	mov	256, %o1
	mov	%i5, %o0
.LLVL882:
	ld	[%fp-4], %g1
	mov	%g3, %o4
	ld	[%l7 + %o3], %o3, %gdop(.LLC5)
	ld	[%l7 + %o5], %o5, %gdop(.LLC3)
	st	%g2, [%sp+92]
	st	%g3, [%sp+100]
	call	snprintf, 0
	 st	%g1, [%sp+108]
.LLVL883:
	sethi	%gdop_hix22(.LLC4), %o1
	mov	%i5, %o0
	xor	%o1, %gdop_lox10(.LLC4), %o1
	mov	209, %o2
	call	__assert, 0
	 ld	[%l7 + %o1], %o1, %gdop(.LLC4)
.LL537:
.LLBE486:
.LLBE487:
	return	%i7+8
	 nop
.LLVL884:
.LL535:
.LLBB488:
.LLBB483:
	.loc 1 209 0 discriminator 1
	add	%sp, -264, %sp
	stx	%g0, [%fp-8]
	sethi	%gdop_hix22(.LLC2), %g3
	st	%g1, [%sp+96]
	sethi	%gdop_hix22(.LLC0), %o2
	xor	%g3, %gdop_lox10(.LLC2), %g3
	ld	[%fp-8], %g1
.LLVL885:
	sethi	%gdop_hix22(.LLC1), %o3
	sethi	%gdop_hix22(.LLC3), %o5
	ld	[%l7 + %g3], %g3, %gdop(.LLC2)
	xor	%o2, %gdop_lox10(.LLC0), %o2
	xor	%o3, %gdop_lox10(.LLC1), %o3
	xor	%o5, %gdop_lox10(.LLC3), %o5
	add	%sp, 120, %i0
.LLVL886:
	ld	[%l7 + %o2], %o2, %gdop(.LLC0)
	st	%g1, [%sp+104]
	mov	256, %o1
	mov	%i0, %o0
.LLVL887:
	ld	[%fp-4], %g1
	mov	%g3, %o4
	ld	[%l7 + %o3], %o3, %gdop(.LLC1)
	ld	[%l7 + %o5], %o5, %gdop(.LLC3)
	st	%g2, [%sp+92]
	st	%g3, [%sp+100]
	call	snprintf, 0
	 st	%g1, [%sp+108]
.LLVL888:
	sethi	%gdop_hix22(.LLC4), %o1
	mov	%i0, %o0
	xor	%o1, %gdop_lox10(.LLC4), %o1
	mov	209, %o2
	call	__assert, 0
	 ld	[%l7 + %o1], %o1, %gdop(.LLC4)
	ba,pt	%xcc, .LL531
	 nop
.LLBE483:
.LLBE488:
	.cfi_endproc
.LLFE93:
	.size	atomic_dec_ulong_nv, .-atomic_dec_ulong_nv
	.align 4
	.align 32
	.global atomic_dec_64_nv
	.type	atomic_dec_64_nv, #function
	.proc	017
atomic_dec_64_nv:
.LLFB94:
	.loc 1 210 0 is_stmt 1
	.cfi_startproc
.LLVL889:
	save	%sp, -128, %sp
.LLCFI69:
	.cfi_def_cfa_register 30
	.cfi_window_save
	.cfi_register 15, 31
.LLBB489:
	sethi	%gdop_hix22(atomic_lock), %i3
.LLBE489:
	sethi	%hi(_GLOBAL_OFFSET_TABLE_-4), %l7
	call	__sparc_get_pc_thunk.l7
	 add	%l7, %lo(_GLOBAL_OFFSET_TABLE_+4), %l7
.LLBB491:
	.loc 1 210 0
	xor	%i3, %gdop_lox10(atomic_lock), %i3
	ld	[%l7 + %i3], %i3, %gdop(atomic_lock)
	call	pthread_mutex_lock, 0
	 mov	%i3, %o0
	sra	%o0, 31, %g2
.LLVL890:
	orcc	%g2, %o0, %g0
	bne,pn	%icc, .LL543
	 mov	%o0, %g1
.LLVL891:
.LL539:
.LLBE491:
	.loc 1 210 0 is_stmt 0 discriminator 2
	ldd	[%i0], %i4
.LLBB492:
	mov	%i3, %o0
.LLBE492:
	addcc	%i5, -1, %i5
	addx	%i4, -1, %i4
	std	%i4, [%i0]
.LLVL892:
.LLBB494:
	call	pthread_mutex_unlock, 0
	 nop
	sra	%o0, 31, %g2
.LLVL893:
	orcc	%g2, %o0, %g0
	be,pt	%icc, .LL541
	 mov	%o0, %g1
.LLBB493:
	.loc 1 210 0 discriminator 3
	add	%sp, -264, %sp
	stx	%g0, [%fp-8]
	sethi	%gdop_hix22(.LLC2), %g3
	st	%g1, [%sp+96]
	sethi	%gdop_hix22(.LLC0), %o2
	xor	%g3, %gdop_lox10(.LLC2), %g3
	ld	[%fp-8], %g1
	sethi	%gdop_hix22(.LLC5), %o3
	sethi	%gdop_hix22(.LLC3), %o5
	ld	[%l7 + %g3], %g3, %gdop(.LLC2)
	xor	%o2, %gdop_lox10(.LLC0), %o2
	xor	%o3, %gdop_lox10(.LLC5), %o3
	xor	%o5, %gdop_lox10(.LLC3), %o5
	add	%sp, 120, %i3
.LLVL894:
	ld	[%l7 + %o2], %o2, %gdop(.LLC0)
	st	%g1, [%sp+104]
	mov	256, %o1
	mov	%i3, %o0
.LLVL895:
	ld	[%fp-4], %g1
	mov	%g3, %o4
	ld	[%l7 + %o3], %o3, %gdop(.LLC5)
	ld	[%l7 + %o5], %o5, %gdop(.LLC3)
	st	%g2, [%sp+92]
	st	%g3, [%sp+100]
	call	snprintf, 0
	 st	%g1, [%sp+108]
.LLVL896:
	sethi	%gdop_hix22(.LLC4), %o1
	mov	%i3, %o0
	xor	%o1, %gdop_lox10(.LLC4), %o1
	mov	210, %o2
	call	__assert, 0
	 ld	[%l7 + %o1], %o1, %gdop(.LLC4)
.LLVL897:
.LL541:
.LLBE493:
.LLBE494:
	.loc 1 210 0 discriminator 4
	mov	%i4, %i0
.LLVL898:
	return	%i7+8
	 mov	%o5, %o1
.LLVL899:
.LL543:
.LLBB495:
.LLBB490:
	.loc 1 210 0 discriminator 1
	add	%sp, -264, %sp
	stx	%g0, [%fp-8]
	sethi	%gdop_hix22(.LLC2), %g3
	st	%g1, [%sp+96]
	sethi	%gdop_hix22(.LLC0), %o2
	xor	%g3, %gdop_lox10(.LLC2), %g3
	ld	[%fp-8], %g1
.LLVL900:
	sethi	%gdop_hix22(.LLC1), %o3
	sethi	%gdop_hix22(.LLC3), %o5
	ld	[%l7 + %g3], %g3, %gdop(.LLC2)
	xor	%o2, %gdop_lox10(.LLC0), %o2
	xor	%o3, %gdop_lox10(.LLC1), %o3
	xor	%o5, %gdop_lox10(.LLC3), %o5
	add	%sp, 120, %i4
.LLVL901:
	ld	[%l7 + %o2], %o2, %gdop(.LLC0)
	st	%g1, [%sp+104]
	mov	256, %o1
	mov	%i4, %o0
.LLVL902:
	ld	[%fp-4], %g1
	mov	%g3, %o4
	ld	[%l7 + %o3], %o3, %gdop(.LLC1)
	ld	[%l7 + %o5], %o5, %gdop(.LLC3)
	st	%g2, [%sp+92]
	st	%g3, [%sp+100]
	call	snprintf, 0
	 st	%g1, [%sp+108]
.LLVL903:
	sethi	%gdop_hix22(.LLC4), %o1
	mov	%i4, %o0
	xor	%o1, %gdop_lox10(.LLC4), %o1
	mov	210, %o2
	call	__assert, 0
	 ld	[%l7 + %o1], %o1, %gdop(.LLC4)
	ba,pt	%xcc, .LL539
	 nop
.LLBE490:
.LLBE495:
	.cfi_endproc
.LLFE94:
	.size	atomic_dec_64_nv, .-atomic_dec_64_nv
	.align 4
	.align 32
	.global atomic_add_8_nv
	.type	atomic_add_8_nv, #function
	.proc	014
atomic_add_8_nv:
.LLFB95:
	.loc 1 223 0 is_stmt 1
	.cfi_startproc
.LLVL904:
	save	%sp, -128, %sp
.LLCFI70:
	.cfi_def_cfa_register 30
	.cfi_window_save
	.cfi_register 15, 31
.LLBB496:
	sethi	%gdop_hix22(atomic_lock), %i5
.LLBE496:
	sethi	%hi(_GLOBAL_OFFSET_TABLE_-4), %l7
	call	__sparc_get_pc_thunk.l7
	 add	%l7, %lo(_GLOBAL_OFFSET_TABLE_+4), %l7
.LLBB498:
	.loc 1 223 0
	xor	%i5, %gdop_lox10(atomic_lock), %i5
	ld	[%l7 + %i5], %i5, %gdop(atomic_lock)
	call	pthread_mutex_lock, 0
	 mov	%i5, %o0
	sra	%o0, 31, %g2
.LLVL905:
	orcc	%g2, %o0, %g0
	bne,pn	%icc, .LL549
	 mov	%o0, %g1
.LLVL906:
.LL545:
.LLBE498:
	.loc 1 223 0 is_stmt 0 discriminator 2
	ldub	[%i0], %g1
.LLBB499:
	mov	%i5, %o0
.LLBE499:
	add	%i1, %g1, %i1
.LLVL907:
	stb	%i1, [%i0]
.LLBB501:
	call	pthread_mutex_unlock, 0
	 mov	%i1, %i0
	sra	%o0, 31, %g2
.LLVL908:
	orcc	%g2, %o0, %g0
	be,pt	%icc, .LL547
	 mov	%o0, %g1
.LLBB500:
	.loc 1 223 0 discriminator 3
	add	%sp, -264, %sp
	stx	%g0, [%fp-8]
	sethi	%gdop_hix22(.LLC2), %g3
	st	%g1, [%sp+96]
	sethi	%gdop_hix22(.LLC0), %o2
	xor	%g3, %gdop_lox10(.LLC2), %g3
	ld	[%fp-8], %g1
	sethi	%gdop_hix22(.LLC5), %o3
	sethi	%gdop_hix22(.LLC3), %o5
	ld	[%l7 + %g3], %g3, %gdop(.LLC2)
	xor	%o2, %gdop_lox10(.LLC0), %o2
	xor	%o3, %gdop_lox10(.LLC5), %o3
	xor	%o5, %gdop_lox10(.LLC3), %o5
	add	%sp, 120, %i5
.LLVL909:
	ld	[%l7 + %o2], %o2, %gdop(.LLC0)
	st	%g1, [%sp+104]
	mov	256, %o1
	mov	%i5, %o0
.LLVL910:
	ld	[%fp-4], %g1
	mov	%g3, %o4
	ld	[%l7 + %o3], %o3, %gdop(.LLC5)
	ld	[%l7 + %o5], %o5, %gdop(.LLC3)
	st	%g2, [%sp+92]
	st	%g3, [%sp+100]
	call	snprintf, 0
	 st	%g1, [%sp+108]
.LLVL911:
	sethi	%gdop_hix22(.LLC4), %o1
	mov	%i5, %o0
	xor	%o1, %gdop_lox10(.LLC4), %o1
	mov	223, %o2
	call	__assert, 0
	 ld	[%l7 + %o1], %o1, %gdop(.LLC4)
.LLVL912:
.LL547:
.LLBE500:
.LLBE501:
	.loc 1 223 0 discriminator 4
	return	%i7+8
	 and	%o0, 0xff, %o0
.LLVL913:
.LL549:
.LLBB502:
.LLBB497:
	.loc 1 223 0 discriminator 1
	add	%sp, -264, %sp
	stx	%g0, [%fp-8]
	sethi	%gdop_hix22(.LLC2), %g3
	st	%g1, [%sp+96]
	sethi	%gdop_hix22(.LLC0), %o2
	xor	%g3, %gdop_lox10(.LLC2), %g3
	ld	[%fp-8], %g1
.LLVL914:
	sethi	%gdop_hix22(.LLC1), %o3
	sethi	%gdop_hix22(.LLC3), %o5
	ld	[%l7 + %g3], %g3, %gdop(.LLC2)
	xor	%o2, %gdop_lox10(.LLC0), %o2
	xor	%o3, %gdop_lox10(.LLC1), %o3
	xor	%o5, %gdop_lox10(.LLC3), %o5
	add	%sp, 120, %i4
.LLVL915:
	ld	[%l7 + %o2], %o2, %gdop(.LLC0)
	st	%g1, [%sp+104]
	mov	256, %o1
	mov	%i4, %o0
.LLVL916:
	ld	[%fp-4], %g1
	mov	%g3, %o4
	ld	[%l7 + %o3], %o3, %gdop(.LLC1)
	ld	[%l7 + %o5], %o5, %gdop(.LLC3)
	st	%g2, [%sp+92]
	st	%g3, [%sp+100]
	call	snprintf, 0
	 st	%g1, [%sp+108]
.LLVL917:
	sethi	%gdop_hix22(.LLC4), %o1
	mov	%i4, %o0
	xor	%o1, %gdop_lox10(.LLC4), %o1
	mov	223, %o2
	call	__assert, 0
	 ld	[%l7 + %o1], %o1, %gdop(.LLC4)
	ba,pt	%xcc, .LL545
	 nop
.LLBE497:
.LLBE502:
	.cfi_endproc
.LLFE95:
	.size	atomic_add_8_nv, .-atomic_add_8_nv
	.align 4
	.align 32
	.global atomic_add_char_nv
	.type	atomic_add_char_nv, #function
	.proc	014
atomic_add_char_nv:
.LLFB96:
	.loc 1 224 0 is_stmt 1
	.cfi_startproc
.LLVL918:
	save	%sp, -128, %sp
.LLCFI71:
	.cfi_def_cfa_register 30
	.cfi_window_save
	.cfi_register 15, 31
.LLBB503:
	sethi	%gdop_hix22(atomic_lock), %i5
.LLBE503:
	sethi	%hi(_GLOBAL_OFFSET_TABLE_-4), %l7
	call	__sparc_get_pc_thunk.l7
	 add	%l7, %lo(_GLOBAL_OFFSET_TABLE_+4), %l7
.LLBB505:
	.loc 1 224 0
	xor	%i5, %gdop_lox10(atomic_lock), %i5
	ld	[%l7 + %i5], %i5, %gdop(atomic_lock)
	call	pthread_mutex_lock, 0
	 mov	%i5, %o0
	sra	%o0, 31, %g2
.LLVL919:
	orcc	%g2, %o0, %g0
	bne,pn	%icc, .LL555
	 mov	%o0, %g1
.LLVL920:
.LL551:
.LLBE505:
	.loc 1 224 0 is_stmt 0 discriminator 2
	ldub	[%i0], %g1
.LLBB506:
	mov	%i5, %o0
.LLBE506:
	add	%i1, %g1, %i1
.LLVL921:
	stb	%i1, [%i0]
.LLBB508:
	call	pthread_mutex_unlock, 0
	 mov	%i1, %i0
	sra	%o0, 31, %g2
.LLVL922:
	orcc	%g2, %o0, %g0
	be,pt	%icc, .LL553
	 mov	%o0, %g1
.LLBB507:
	.loc 1 224 0 discriminator 3
	add	%sp, -264, %sp
	stx	%g0, [%fp-8]
	sethi	%gdop_hix22(.LLC2), %g3
	st	%g1, [%sp+96]
	sethi	%gdop_hix22(.LLC0), %o2
	xor	%g3, %gdop_lox10(.LLC2), %g3
	ld	[%fp-8], %g1
	sethi	%gdop_hix22(.LLC5), %o3
	sethi	%gdop_hix22(.LLC3), %o5
	ld	[%l7 + %g3], %g3, %gdop(.LLC2)
	xor	%o2, %gdop_lox10(.LLC0), %o2
	xor	%o3, %gdop_lox10(.LLC5), %o3
	xor	%o5, %gdop_lox10(.LLC3), %o5
	add	%sp, 120, %i5
.LLVL923:
	ld	[%l7 + %o2], %o2, %gdop(.LLC0)
	st	%g1, [%sp+104]
	mov	256, %o1
	mov	%i5, %o0
.LLVL924:
	ld	[%fp-4], %g1
	mov	%g3, %o4
	ld	[%l7 + %o3], %o3, %gdop(.LLC5)
	ld	[%l7 + %o5], %o5, %gdop(.LLC3)
	st	%g2, [%sp+92]
	st	%g3, [%sp+100]
	call	snprintf, 0
	 st	%g1, [%sp+108]
.LLVL925:
	sethi	%gdop_hix22(.LLC4), %o1
	mov	%i5, %o0
	xor	%o1, %gdop_lox10(.LLC4), %o1
	mov	224, %o2
	call	__assert, 0
	 ld	[%l7 + %o1], %o1, %gdop(.LLC4)
.LLVL926:
.LL553:
.LLBE507:
.LLBE508:
	.loc 1 224 0 discriminator 4
	return	%i7+8
	 and	%o0, 0xff, %o0
.LLVL927:
.LL555:
.LLBB509:
.LLBB504:
	.loc 1 224 0 discriminator 1
	add	%sp, -264, %sp
	stx	%g0, [%fp-8]
	sethi	%gdop_hix22(.LLC2), %g3
	st	%g1, [%sp+96]
	sethi	%gdop_hix22(.LLC0), %o2
	xor	%g3, %gdop_lox10(.LLC2), %g3
	ld	[%fp-8], %g1
.LLVL928:
	sethi	%gdop_hix22(.LLC1), %o3
	sethi	%gdop_hix22(.LLC3), %o5
	ld	[%l7 + %g3], %g3, %gdop(.LLC2)
	xor	%o2, %gdop_lox10(.LLC0), %o2
	xor	%o3, %gdop_lox10(.LLC1), %o3
	xor	%o5, %gdop_lox10(.LLC3), %o5
	add	%sp, 120, %i4
.LLVL929:
	ld	[%l7 + %o2], %o2, %gdop(.LLC0)
	st	%g1, [%sp+104]
	mov	256, %o1
	mov	%i4, %o0
.LLVL930:
	ld	[%fp-4], %g1
	mov	%g3, %o4
	ld	[%l7 + %o3], %o3, %gdop(.LLC1)
	ld	[%l7 + %o5], %o5, %gdop(.LLC3)
	st	%g2, [%sp+92]
	st	%g3, [%sp+100]
	call	snprintf, 0
	 st	%g1, [%sp+108]
.LLVL931:
	sethi	%gdop_hix22(.LLC4), %o1
	mov	%i4, %o0
	xor	%o1, %gdop_lox10(.LLC4), %o1
	mov	224, %o2
	call	__assert, 0
	 ld	[%l7 + %o1], %o1, %gdop(.LLC4)
	ba,pt	%xcc, .LL551
	 nop
.LLBE504:
.LLBE509:
	.cfi_endproc
.LLFE96:
	.size	atomic_add_char_nv, .-atomic_add_char_nv
	.align 4
	.align 32
	.global atomic_add_16_nv
	.type	atomic_add_16_nv, #function
	.proc	015
atomic_add_16_nv:
.LLFB97:
	.loc 1 225 0 is_stmt 1
	.cfi_startproc
.LLVL932:
	save	%sp, -128, %sp
.LLCFI72:
	.cfi_def_cfa_register 30
	.cfi_window_save
	.cfi_register 15, 31
.LLBB510:
	sethi	%gdop_hix22(atomic_lock), %i5
.LLBE510:
	sethi	%hi(_GLOBAL_OFFSET_TABLE_-4), %l7
	call	__sparc_get_pc_thunk.l7
	 add	%l7, %lo(_GLOBAL_OFFSET_TABLE_+4), %l7
.LLBB512:
	.loc 1 225 0
	xor	%i5, %gdop_lox10(atomic_lock), %i5
	ld	[%l7 + %i5], %i5, %gdop(atomic_lock)
	call	pthread_mutex_lock, 0
	 mov	%i5, %o0
	sra	%o0, 31, %g2
.LLVL933:
	orcc	%g2, %o0, %g0
	bne,pn	%icc, .LL561
	 mov	%o0, %g1
.LLVL934:
.LL557:
.LLBE512:
	.loc 1 225 0 is_stmt 0 discriminator 2
	lduh	[%i0], %g1
.LLBB513:
	mov	%i5, %o0
.LLBE513:
	add	%i1, %g1, %i1
.LLVL935:
	sth	%i1, [%i0]
.LLBB515:
	call	pthread_mutex_unlock, 0
	 nop
	sra	%o0, 31, %g2
.LLVL936:
	orcc	%g2, %o0, %g0
	be,pt	%icc, .LL559
	 mov	%o0, %g1
.LLBB514:
	.loc 1 225 0 discriminator 3
	add	%sp, -264, %sp
	stx	%g0, [%fp-8]
	sethi	%gdop_hix22(.LLC2), %g3
	st	%g1, [%sp+96]
	sethi	%gdop_hix22(.LLC0), %o2
	xor	%g3, %gdop_lox10(.LLC2), %g3
	ld	[%fp-8], %g1
	sethi	%gdop_hix22(.LLC5), %o3
	sethi	%gdop_hix22(.LLC3), %o5
	ld	[%l7 + %g3], %g3, %gdop(.LLC2)
	xor	%o2, %gdop_lox10(.LLC0), %o2
	xor	%o3, %gdop_lox10(.LLC5), %o3
	xor	%o5, %gdop_lox10(.LLC3), %o5
	add	%sp, 120, %i5
.LLVL937:
	ld	[%l7 + %o2], %o2, %gdop(.LLC0)
	st	%g1, [%sp+104]
	mov	256, %o1
	mov	%i5, %o0
.LLVL938:
	ld	[%fp-4], %g1
	mov	%g3, %o4
	ld	[%l7 + %o3], %o3, %gdop(.LLC5)
	ld	[%l7 + %o5], %o5, %gdop(.LLC3)
	st	%g2, [%sp+92]
	st	%g3, [%sp+100]
	call	snprintf, 0
	 st	%g1, [%sp+108]
.LLVL939:
	sethi	%gdop_hix22(.LLC4), %o1
	mov	%i5, %o0
	xor	%o1, %gdop_lox10(.LLC4), %o1
	mov	225, %o2
	call	__assert, 0
	 ld	[%l7 + %o1], %o1, %gdop(.LLC4)
.LLVL940:
.LL559:
.LLBE514:
.LLBE515:
	.loc 1 225 0 discriminator 4
	sll	%i1, 16, %i1
.LLVL941:
	return	%i7+8
	 srl	%o1, 16, %o0
.LLVL942:
.LL561:
.LLBB516:
.LLBB511:
	.loc 1 225 0 discriminator 1
	add	%sp, -264, %sp
	stx	%g0, [%fp-8]
	sethi	%gdop_hix22(.LLC2), %g3
	st	%g1, [%sp+96]
	sethi	%gdop_hix22(.LLC0), %o2
	xor	%g3, %gdop_lox10(.LLC2), %g3
	ld	[%fp-8], %g1
.LLVL943:
	sethi	%gdop_hix22(.LLC1), %o3
	sethi	%gdop_hix22(.LLC3), %o5
	ld	[%l7 + %g3], %g3, %gdop(.LLC2)
	xor	%o2, %gdop_lox10(.LLC0), %o2
	xor	%o3, %gdop_lox10(.LLC1), %o3
	xor	%o5, %gdop_lox10(.LLC3), %o5
	add	%sp, 120, %i4
.LLVL944:
	ld	[%l7 + %o2], %o2, %gdop(.LLC0)
	st	%g1, [%sp+104]
	mov	256, %o1
	mov	%i4, %o0
.LLVL945:
	ld	[%fp-4], %g1
	mov	%g3, %o4
	ld	[%l7 + %o3], %o3, %gdop(.LLC1)
	ld	[%l7 + %o5], %o5, %gdop(.LLC3)
	st	%g2, [%sp+92]
	st	%g3, [%sp+100]
	call	snprintf, 0
	 st	%g1, [%sp+108]
.LLVL946:
	sethi	%gdop_hix22(.LLC4), %o1
	mov	%i4, %o0
	xor	%o1, %gdop_lox10(.LLC4), %o1
	mov	225, %o2
	call	__assert, 0
	 ld	[%l7 + %o1], %o1, %gdop(.LLC4)
	ba,pt	%xcc, .LL557
	 nop
.LLBE511:
.LLBE516:
	.cfi_endproc
.LLFE97:
	.size	atomic_add_16_nv, .-atomic_add_16_nv
	.align 4
	.align 32
	.global atomic_add_short_nv
	.type	atomic_add_short_nv, #function
	.proc	015
atomic_add_short_nv:
.LLFB98:
	.loc 1 226 0 is_stmt 1
	.cfi_startproc
.LLVL947:
	save	%sp, -128, %sp
.LLCFI73:
	.cfi_def_cfa_register 30
	.cfi_window_save
	.cfi_register 15, 31
.LLBB517:
	sethi	%gdop_hix22(atomic_lock), %i5
.LLBE517:
	sethi	%hi(_GLOBAL_OFFSET_TABLE_-4), %l7
	call	__sparc_get_pc_thunk.l7
	 add	%l7, %lo(_GLOBAL_OFFSET_TABLE_+4), %l7
.LLBB519:
	.loc 1 226 0
	xor	%i5, %gdop_lox10(atomic_lock), %i5
	ld	[%l7 + %i5], %i5, %gdop(atomic_lock)
	call	pthread_mutex_lock, 0
	 mov	%i5, %o0
	sra	%o0, 31, %g2
.LLVL948:
	orcc	%g2, %o0, %g0
	bne,pn	%icc, .LL567
	 mov	%o0, %g1
.LLVL949:
.LL563:
.LLBE519:
	.loc 1 226 0 is_stmt 0 discriminator 2
	lduh	[%i0], %g1
.LLBB520:
	mov	%i5, %o0
.LLBE520:
	add	%i1, %g1, %i1
.LLVL950:
	sth	%i1, [%i0]
.LLBB522:
	call	pthread_mutex_unlock, 0
	 nop
	sra	%o0, 31, %g2
.LLVL951:
	orcc	%g2, %o0, %g0
	be,pt	%icc, .LL565
	 mov	%o0, %g1
.LLBB521:
	.loc 1 226 0 discriminator 3
	add	%sp, -264, %sp
	stx	%g0, [%fp-8]
	sethi	%gdop_hix22(.LLC2), %g3
	st	%g1, [%sp+96]
	sethi	%gdop_hix22(.LLC0), %o2
	xor	%g3, %gdop_lox10(.LLC2), %g3
	ld	[%fp-8], %g1
	sethi	%gdop_hix22(.LLC5), %o3
	sethi	%gdop_hix22(.LLC3), %o5
	ld	[%l7 + %g3], %g3, %gdop(.LLC2)
	xor	%o2, %gdop_lox10(.LLC0), %o2
	xor	%o3, %gdop_lox10(.LLC5), %o3
	xor	%o5, %gdop_lox10(.LLC3), %o5
	add	%sp, 120, %i5
.LLVL952:
	ld	[%l7 + %o2], %o2, %gdop(.LLC0)
	st	%g1, [%sp+104]
	mov	256, %o1
	mov	%i5, %o0
.LLVL953:
	ld	[%fp-4], %g1
	mov	%g3, %o4
	ld	[%l7 + %o3], %o3, %gdop(.LLC5)
	ld	[%l7 + %o5], %o5, %gdop(.LLC3)
	st	%g2, [%sp+92]
	st	%g3, [%sp+100]
	call	snprintf, 0
	 st	%g1, [%sp+108]
.LLVL954:
	sethi	%gdop_hix22(.LLC4), %o1
	mov	%i5, %o0
	xor	%o1, %gdop_lox10(.LLC4), %o1
	mov	226, %o2
	call	__assert, 0
	 ld	[%l7 + %o1], %o1, %gdop(.LLC4)
.LLVL955:
.LL565:
.LLBE521:
.LLBE522:
	.loc 1 226 0 discriminator 4
	sll	%i1, 16, %i1
.LLVL956:
	return	%i7+8
	 srl	%o1, 16, %o0
.LLVL957:
.LL567:
.LLBB523:
.LLBB518:
	.loc 1 226 0 discriminator 1
	add	%sp, -264, %sp
	stx	%g0, [%fp-8]
	sethi	%gdop_hix22(.LLC2), %g3
	st	%g1, [%sp+96]
	sethi	%gdop_hix22(.LLC0), %o2
	xor	%g3, %gdop_lox10(.LLC2), %g3
	ld	[%fp-8], %g1
.LLVL958:
	sethi	%gdop_hix22(.LLC1), %o3
	sethi	%gdop_hix22(.LLC3), %o5
	ld	[%l7 + %g3], %g3, %gdop(.LLC2)
	xor	%o2, %gdop_lox10(.LLC0), %o2
	xor	%o3, %gdop_lox10(.LLC1), %o3
	xor	%o5, %gdop_lox10(.LLC3), %o5
	add	%sp, 120, %i4
.LLVL959:
	ld	[%l7 + %o2], %o2, %gdop(.LLC0)
	st	%g1, [%sp+104]
	mov	256, %o1
	mov	%i4, %o0
.LLVL960:
	ld	[%fp-4], %g1
	mov	%g3, %o4
	ld	[%l7 + %o3], %o3, %gdop(.LLC1)
	ld	[%l7 + %o5], %o5, %gdop(.LLC3)
	st	%g2, [%sp+92]
	st	%g3, [%sp+100]
	call	snprintf, 0
	 st	%g1, [%sp+108]
.LLVL961:
	sethi	%gdop_hix22(.LLC4), %o1
	mov	%i4, %o0
	xor	%o1, %gdop_lox10(.LLC4), %o1
	mov	226, %o2
	call	__assert, 0
	 ld	[%l7 + %o1], %o1, %gdop(.LLC4)
	ba,pt	%xcc, .LL563
	 nop
.LLBE518:
.LLBE523:
	.cfi_endproc
.LLFE98:
	.size	atomic_add_short_nv, .-atomic_add_short_nv
	.align 4
	.align 32
	.global atomic_add_32_nv
	.type	atomic_add_32_nv, #function
	.proc	016
atomic_add_32_nv:
.LLFB99:
	.loc 1 227 0 is_stmt 1
	.cfi_startproc
.LLVL962:
	save	%sp, -128, %sp
.LLCFI74:
	.cfi_def_cfa_register 30
	.cfi_window_save
	.cfi_register 15, 31
.LLBB524:
	sethi	%gdop_hix22(atomic_lock), %i4
.LLBE524:
	mov	%i0, %i5
	sethi	%hi(_GLOBAL_OFFSET_TABLE_-4), %l7
	call	__sparc_get_pc_thunk.l7
	 add	%l7, %lo(_GLOBAL_OFFSET_TABLE_+4), %l7
.LLBB526:
	.loc 1 227 0
	xor	%i4, %gdop_lox10(atomic_lock), %i4
	ld	[%l7 + %i4], %i4, %gdop(atomic_lock)
	call	pthread_mutex_lock, 0
	 mov	%i4, %o0
	sra	%o0, 31, %g2
.LLVL963:
	orcc	%g2, %o0, %g0
	bne,pn	%icc, .LL573
	 mov	%o0, %g1
.LLVL964:
.LL569:
.LLBE526:
	.loc 1 227 0 is_stmt 0 discriminator 2
	ld	[%i5], %i0
.LLBB527:
	mov	%i4, %o0
.LLBE527:
	add	%i1, %i0, %i0
	st	%i0, [%i5]
.LLVL965:
.LLBB529:
	call	pthread_mutex_unlock, 0
	 nop
	sra	%o0, 31, %g2
.LLVL966:
	orcc	%g2, %o0, %g0
	be,pt	%icc, .LL575
	 mov	%o0, %g1
.LLBB528:
	.loc 1 227 0 discriminator 3
	add	%sp, -264, %sp
	stx	%g0, [%fp-8]
	sethi	%gdop_hix22(.LLC2), %g3
	st	%g1, [%sp+96]
	sethi	%gdop_hix22(.LLC0), %o2
	xor	%g3, %gdop_lox10(.LLC2), %g3
	ld	[%fp-8], %g1
	sethi	%gdop_hix22(.LLC5), %o3
	sethi	%gdop_hix22(.LLC3), %o5
	ld	[%l7 + %g3], %g3, %gdop(.LLC2)
	xor	%o2, %gdop_lox10(.LLC0), %o2
	xor	%o3, %gdop_lox10(.LLC5), %o3
	xor	%o5, %gdop_lox10(.LLC3), %o5
	add	%sp, 120, %i5
.LLVL967:
	ld	[%l7 + %o2], %o2, %gdop(.LLC0)
	st	%g1, [%sp+104]
	mov	256, %o1
	mov	%i5, %o0
.LLVL968:
	ld	[%fp-4], %g1
	mov	%g3, %o4
	ld	[%l7 + %o3], %o3, %gdop(.LLC5)
	ld	[%l7 + %o5], %o5, %gdop(.LLC3)
	st	%g2, [%sp+92]
	st	%g3, [%sp+100]
	call	snprintf, 0
	 st	%g1, [%sp+108]
.LLVL969:
	sethi	%gdop_hix22(.LLC4), %o1
	mov	%i5, %o0
	xor	%o1, %gdop_lox10(.LLC4), %o1
	mov	227, %o2
	call	__assert, 0
	 ld	[%l7 + %o1], %o1, %gdop(.LLC4)
.LL575:
.LLBE528:
.LLBE529:
	return	%i7+8
	 nop
.LLVL970:
.LL573:
.LLBB530:
.LLBB525:
	.loc 1 227 0 discriminator 1
	add	%sp, -264, %sp
	stx	%g0, [%fp-8]
	sethi	%gdop_hix22(.LLC2), %g3
	st	%g1, [%sp+96]
	sethi	%gdop_hix22(.LLC0), %o2
	xor	%g3, %gdop_lox10(.LLC2), %g3
	ld	[%fp-8], %g1
.LLVL971:
	sethi	%gdop_hix22(.LLC1), %o3
	sethi	%gdop_hix22(.LLC3), %o5
	ld	[%l7 + %g3], %g3, %gdop(.LLC2)
	xor	%o2, %gdop_lox10(.LLC0), %o2
	xor	%o3, %gdop_lox10(.LLC1), %o3
	xor	%o5, %gdop_lox10(.LLC3), %o5
	add	%sp, 120, %i0
.LLVL972:
	ld	[%l7 + %o2], %o2, %gdop(.LLC0)
	st	%g1, [%sp+104]
	mov	256, %o1
	mov	%i0, %o0
.LLVL973:
	ld	[%fp-4], %g1
	mov	%g3, %o4
	ld	[%l7 + %o3], %o3, %gdop(.LLC1)
	ld	[%l7 + %o5], %o5, %gdop(.LLC3)
	st	%g2, [%sp+92]
	st	%g3, [%sp+100]
	call	snprintf, 0
	 st	%g1, [%sp+108]
.LLVL974:
	sethi	%gdop_hix22(.LLC4), %o1
	mov	%i0, %o0
	xor	%o1, %gdop_lox10(.LLC4), %o1
	mov	227, %o2
	call	__assert, 0
	 ld	[%l7 + %o1], %o1, %gdop(.LLC4)
	ba,pt	%xcc, .LL569
	 nop
.LLBE525:
.LLBE530:
	.cfi_endproc
.LLFE99:
	.size	atomic_add_32_nv, .-atomic_add_32_nv
	.align 4
	.align 32
	.global atomic_add_int_nv
	.type	atomic_add_int_nv, #function
	.proc	016
atomic_add_int_nv:
.LLFB100:
	.loc 1 228 0 is_stmt 1
	.cfi_startproc
.LLVL975:
	save	%sp, -128, %sp
.LLCFI75:
	.cfi_def_cfa_register 30
	.cfi_window_save
	.cfi_register 15, 31
.LLBB531:
	sethi	%gdop_hix22(atomic_lock), %i4
.LLBE531:
	mov	%i0, %i5
	sethi	%hi(_GLOBAL_OFFSET_TABLE_-4), %l7
	call	__sparc_get_pc_thunk.l7
	 add	%l7, %lo(_GLOBAL_OFFSET_TABLE_+4), %l7
.LLBB533:
	.loc 1 228 0
	xor	%i4, %gdop_lox10(atomic_lock), %i4
	ld	[%l7 + %i4], %i4, %gdop(atomic_lock)
	call	pthread_mutex_lock, 0
	 mov	%i4, %o0
	sra	%o0, 31, %g2
.LLVL976:
	orcc	%g2, %o0, %g0
	bne,pn	%icc, .LL581
	 mov	%o0, %g1
.LLVL977:
.LL577:
.LLBE533:
	.loc 1 228 0 is_stmt 0 discriminator 2
	ld	[%i5], %i0
.LLBB534:
	mov	%i4, %o0
.LLBE534:
	add	%i1, %i0, %i0
	st	%i0, [%i5]
.LLVL978:
.LLBB536:
	call	pthread_mutex_unlock, 0
	 nop
	sra	%o0, 31, %g2
.LLVL979:
	orcc	%g2, %o0, %g0
	be,pt	%icc, .LL583
	 mov	%o0, %g1
.LLBB535:
	.loc 1 228 0 discriminator 3
	add	%sp, -264, %sp
	stx	%g0, [%fp-8]
	sethi	%gdop_hix22(.LLC2), %g3
	st	%g1, [%sp+96]
	sethi	%gdop_hix22(.LLC0), %o2
	xor	%g3, %gdop_lox10(.LLC2), %g3
	ld	[%fp-8], %g1
	sethi	%gdop_hix22(.LLC5), %o3
	sethi	%gdop_hix22(.LLC3), %o5
	ld	[%l7 + %g3], %g3, %gdop(.LLC2)
	xor	%o2, %gdop_lox10(.LLC0), %o2
	xor	%o3, %gdop_lox10(.LLC5), %o3
	xor	%o5, %gdop_lox10(.LLC3), %o5
	add	%sp, 120, %i5
.LLVL980:
	ld	[%l7 + %o2], %o2, %gdop(.LLC0)
	st	%g1, [%sp+104]
	mov	256, %o1
	mov	%i5, %o0
.LLVL981:
	ld	[%fp-4], %g1
	mov	%g3, %o4
	ld	[%l7 + %o3], %o3, %gdop(.LLC5)
	ld	[%l7 + %o5], %o5, %gdop(.LLC3)
	st	%g2, [%sp+92]
	st	%g3, [%sp+100]
	call	snprintf, 0
	 st	%g1, [%sp+108]
.LLVL982:
	sethi	%gdop_hix22(.LLC4), %o1
	mov	%i5, %o0
	xor	%o1, %gdop_lox10(.LLC4), %o1
	mov	228, %o2
	call	__assert, 0
	 ld	[%l7 + %o1], %o1, %gdop(.LLC4)
.LL583:
.LLBE535:
.LLBE536:
	return	%i7+8
	 nop
.LLVL983:
.LL581:
.LLBB537:
.LLBB532:
	.loc 1 228 0 discriminator 1
	add	%sp, -264, %sp
	stx	%g0, [%fp-8]
	sethi	%gdop_hix22(.LLC2), %g3
	st	%g1, [%sp+96]
	sethi	%gdop_hix22(.LLC0), %o2
	xor	%g3, %gdop_lox10(.LLC2), %g3
	ld	[%fp-8], %g1
.LLVL984:
	sethi	%gdop_hix22(.LLC1), %o3
	sethi	%gdop_hix22(.LLC3), %o5
	ld	[%l7 + %g3], %g3, %gdop(.LLC2)
	xor	%o2, %gdop_lox10(.LLC0), %o2
	xor	%o3, %gdop_lox10(.LLC1), %o3
	xor	%o5, %gdop_lox10(.LLC3), %o5
	add	%sp, 120, %i0
.LLVL985:
	ld	[%l7 + %o2], %o2, %gdop(.LLC0)
	st	%g1, [%sp+104]
	mov	256, %o1
	mov	%i0, %o0
.LLVL986:
	ld	[%fp-4], %g1
	mov	%g3, %o4
	ld	[%l7 + %o3], %o3, %gdop(.LLC1)
	ld	[%l7 + %o5], %o5, %gdop(.LLC3)
	st	%g2, [%sp+92]
	st	%g3, [%sp+100]
	call	snprintf, 0
	 st	%g1, [%sp+108]
.LLVL987:
	sethi	%gdop_hix22(.LLC4), %o1
	mov	%i0, %o0
	xor	%o1, %gdop_lox10(.LLC4), %o1
	mov	228, %o2
	call	__assert, 0
	 ld	[%l7 + %o1], %o1, %gdop(.LLC4)
	ba,pt	%xcc, .LL577
	 nop
.LLBE532:
.LLBE537:
	.cfi_endproc
.LLFE100:
	.size	atomic_add_int_nv, .-atomic_add_int_nv
	.align 4
	.align 32
	.global atomic_add_long_nv
	.type	atomic_add_long_nv, #function
	.proc	016
atomic_add_long_nv:
.LLFB101:
	.loc 1 229 0 is_stmt 1
	.cfi_startproc
.LLVL988:
	save	%sp, -128, %sp
.LLCFI76:
	.cfi_def_cfa_register 30
	.cfi_window_save
	.cfi_register 15, 31
.LLBB538:
	sethi	%gdop_hix22(atomic_lock), %i4
.LLBE538:
	mov	%i0, %i5
	sethi	%hi(_GLOBAL_OFFSET_TABLE_-4), %l7
	call	__sparc_get_pc_thunk.l7
	 add	%l7, %lo(_GLOBAL_OFFSET_TABLE_+4), %l7
.LLBB540:
	.loc 1 229 0
	xor	%i4, %gdop_lox10(atomic_lock), %i4
	ld	[%l7 + %i4], %i4, %gdop(atomic_lock)
	call	pthread_mutex_lock, 0
	 mov	%i4, %o0
	sra	%o0, 31, %g2
.LLVL989:
	orcc	%g2, %o0, %g0
	bne,pn	%icc, .LL589
	 mov	%o0, %g1
.LLVL990:
.LL585:
.LLBE540:
	.loc 1 229 0 is_stmt 0 discriminator 2
	ld	[%i5], %i0
.LLBB541:
	mov	%i4, %o0
.LLBE541:
	add	%i1, %i0, %i0
	st	%i0, [%i5]
.LLVL991:
.LLBB543:
	call	pthread_mutex_unlock, 0
	 nop
	sra	%o0, 31, %g2
.LLVL992:
	orcc	%g2, %o0, %g0
	be,pt	%icc, .LL591
	 mov	%o0, %g1
.LLBB542:
	.loc 1 229 0 discriminator 3
	add	%sp, -264, %sp
	stx	%g0, [%fp-8]
	sethi	%gdop_hix22(.LLC2), %g3
	st	%g1, [%sp+96]
	sethi	%gdop_hix22(.LLC0), %o2
	xor	%g3, %gdop_lox10(.LLC2), %g3
	ld	[%fp-8], %g1
	sethi	%gdop_hix22(.LLC5), %o3
	sethi	%gdop_hix22(.LLC3), %o5
	ld	[%l7 + %g3], %g3, %gdop(.LLC2)
	xor	%o2, %gdop_lox10(.LLC0), %o2
	xor	%o3, %gdop_lox10(.LLC5), %o3
	xor	%o5, %gdop_lox10(.LLC3), %o5
	add	%sp, 120, %i5
.LLVL993:
	ld	[%l7 + %o2], %o2, %gdop(.LLC0)
	st	%g1, [%sp+104]
	mov	256, %o1
	mov	%i5, %o0
.LLVL994:
	ld	[%fp-4], %g1
	mov	%g3, %o4
	ld	[%l7 + %o3], %o3, %gdop(.LLC5)
	ld	[%l7 + %o5], %o5, %gdop(.LLC3)
	st	%g2, [%sp+92]
	st	%g3, [%sp+100]
	call	snprintf, 0
	 st	%g1, [%sp+108]
.LLVL995:
	sethi	%gdop_hix22(.LLC4), %o1
	mov	%i5, %o0
	xor	%o1, %gdop_lox10(.LLC4), %o1
	mov	229, %o2
	call	__assert, 0
	 ld	[%l7 + %o1], %o1, %gdop(.LLC4)
.LL591:
.LLBE542:
.LLBE543:
	return	%i7+8
	 nop
.LLVL996:
.LL589:
.LLBB544:
.LLBB539:
	.loc 1 229 0 discriminator 1
	add	%sp, -264, %sp
	stx	%g0, [%fp-8]
	sethi	%gdop_hix22(.LLC2), %g3
	st	%g1, [%sp+96]
	sethi	%gdop_hix22(.LLC0), %o2
	xor	%g3, %gdop_lox10(.LLC2), %g3
	ld	[%fp-8], %g1
.LLVL997:
	sethi	%gdop_hix22(.LLC1), %o3
	sethi	%gdop_hix22(.LLC3), %o5
	ld	[%l7 + %g3], %g3, %gdop(.LLC2)
	xor	%o2, %gdop_lox10(.LLC0), %o2
	xor	%o3, %gdop_lox10(.LLC1), %o3
	xor	%o5, %gdop_lox10(.LLC3), %o5
	add	%sp, 120, %i0
.LLVL998:
	ld	[%l7 + %o2], %o2, %gdop(.LLC0)
	st	%g1, [%sp+104]
	mov	256, %o1
	mov	%i0, %o0
.LLVL999:
	ld	[%fp-4], %g1
	mov	%g3, %o4
	ld	[%l7 + %o3], %o3, %gdop(.LLC1)
	ld	[%l7 + %o5], %o5, %gdop(.LLC3)
	st	%g2, [%sp+92]
	st	%g3, [%sp+100]
	call	snprintf, 0
	 st	%g1, [%sp+108]
.LLVL1000:
	sethi	%gdop_hix22(.LLC4), %o1
	mov	%i0, %o0
	xor	%o1, %gdop_lox10(.LLC4), %o1
	mov	229, %o2
	call	__assert, 0
	 ld	[%l7 + %o1], %o1, %gdop(.LLC4)
	ba,pt	%xcc, .LL585
	 nop
.LLBE539:
.LLBE544:
	.cfi_endproc
.LLFE101:
	.size	atomic_add_long_nv, .-atomic_add_long_nv
	.align 4
	.align 32
	.global atomic_add_64_nv
	.type	atomic_add_64_nv, #function
	.proc	017
atomic_add_64_nv:
.LLFB102:
	.loc 1 230 0 is_stmt 1
	.cfi_startproc
.LLVL1001:
	save	%sp, -128, %sp
.LLCFI77:
	.cfi_def_cfa_register 30
	.cfi_window_save
	.cfi_register 15, 31
	mov	%i2, %i3
	mov	%i1, %i2
.LLBB545:
	sethi	%gdop_hix22(atomic_lock), %i1
.LLVL1002:
.LLBE545:
	sethi	%hi(_GLOBAL_OFFSET_TABLE_-4), %l7
	call	__sparc_get_pc_thunk.l7
	 add	%l7, %lo(_GLOBAL_OFFSET_TABLE_+4), %l7
.LLBB547:
	.loc 1 230 0
	xor	%i1, %gdop_lox10(atomic_lock), %i1
	ld	[%l7 + %i1], %i1, %gdop(atomic_lock)
	call	pthread_mutex_lock, 0
	 mov	%i1, %o0
	sra	%o0, 31, %g2
.LLVL1003:
	orcc	%g2, %o0, %g0
	bne,pn	%icc, .LL597
	 mov	%o0, %g1
.LLVL1004:
.LL593:
.LLBE547:
	.loc 1 230 0 is_stmt 0 discriminator 2
	ldd	[%i0], %i4
.LLBB548:
	mov	%i1, %o0
.LLBE548:
	addcc	%i3, %i5, %i5
	addx	%i2, %i4, %i4
	std	%i4, [%i0]
.LLVL1005:
.LLBB550:
	call	pthread_mutex_unlock, 0
	 nop
	sra	%o0, 31, %g2
.LLVL1006:
	orcc	%g2, %o0, %g0
	be,pt	%icc, .LL595
	 mov	%o0, %g1
.LLBB549:
	.loc 1 230 0 discriminator 3
	add	%sp, -264, %sp
	stx	%g0, [%fp-8]
	sethi	%gdop_hix22(.LLC2), %g3
	st	%g1, [%sp+96]
	sethi	%gdop_hix22(.LLC0), %o2
	xor	%g3, %gdop_lox10(.LLC2), %g3
	ld	[%fp-8], %g1
	sethi	%gdop_hix22(.LLC5), %o3
	sethi	%gdop_hix22(.LLC3), %o5
	ld	[%l7 + %g3], %g3, %gdop(.LLC2)
	xor	%o2, %gdop_lox10(.LLC0), %o2
	xor	%o3, %gdop_lox10(.LLC5), %o3
	xor	%o5, %gdop_lox10(.LLC3), %o5
	add	%sp, 120, %i2
.LLVL1007:
	ld	[%l7 + %o2], %o2, %gdop(.LLC0)
	st	%g1, [%sp+104]
	mov	256, %o1
	mov	%i2, %o0
.LLVL1008:
	ld	[%fp-4], %g1
	mov	%g3, %o4
	ld	[%l7 + %o3], %o3, %gdop(.LLC5)
	ld	[%l7 + %o5], %o5, %gdop(.LLC3)
	st	%g2, [%sp+92]
	st	%g3, [%sp+100]
	call	snprintf, 0
	 st	%g1, [%sp+108]
.LLVL1009:
	sethi	%gdop_hix22(.LLC4), %o1
	mov	%i2, %o0
	xor	%o1, %gdop_lox10(.LLC4), %o1
	mov	230, %o2
	call	__assert, 0
	 ld	[%l7 + %o1], %o1, %gdop(.LLC4)
.LLVL1010:
.LL595:
.LLBE549:
.LLBE550:
	.loc 1 230 0 discriminator 4
	mov	%i4, %i0
.LLVL1011:
	return	%i7+8
	 mov	%o5, %o1
.LLVL1012:
.LL597:
.LLBB551:
.LLBB546:
	.loc 1 230 0 discriminator 1
	add	%sp, -264, %sp
	stx	%g0, [%fp-8]
	sethi	%gdop_hix22(.LLC2), %g3
	st	%g1, [%sp+96]
	sethi	%gdop_hix22(.LLC0), %o2
	xor	%g3, %gdop_lox10(.LLC2), %g3
	ld	[%fp-8], %g1
.LLVL1013:
	sethi	%gdop_hix22(.LLC1), %o3
	sethi	%gdop_hix22(.LLC3), %o5
	ld	[%l7 + %g3], %g3, %gdop(.LLC2)
	xor	%o2, %gdop_lox10(.LLC0), %o2
	xor	%o3, %gdop_lox10(.LLC1), %o3
	xor	%o5, %gdop_lox10(.LLC3), %o5
	add	%sp, 120, %i4
.LLVL1014:
	ld	[%l7 + %o2], %o2, %gdop(.LLC0)
	st	%g1, [%sp+104]
	mov	256, %o1
	mov	%i4, %o0
.LLVL1015:
	ld	[%fp-4], %g1
	mov	%g3, %o4
	ld	[%l7 + %o3], %o3, %gdop(.LLC1)
	ld	[%l7 + %o5], %o5, %gdop(.LLC3)
	st	%g2, [%sp+92]
	st	%g3, [%sp+100]
	call	snprintf, 0
	 st	%g1, [%sp+108]
.LLVL1016:
	sethi	%gdop_hix22(.LLC4), %o1
	mov	%i4, %o0
	xor	%o1, %gdop_lox10(.LLC4), %o1
	mov	230, %o2
	call	__assert, 0
	 ld	[%l7 + %o1], %o1, %gdop(.LLC4)
	ba,pt	%xcc, .LL593
	 nop
.LLBE546:
.LLBE551:
	.cfi_endproc
.LLFE102:
	.size	atomic_add_64_nv, .-atomic_add_64_nv
	.align 4
	.align 32
	.global atomic_add_ptr_nv
	.type	atomic_add_ptr_nv, #function
	.proc	0120
atomic_add_ptr_nv:
.LLFB103:
	.loc 1 233 0 is_stmt 1
	.cfi_startproc
.LLVL1017:
	save	%sp, -128, %sp
.LLCFI78:
	.cfi_def_cfa_register 30
	.cfi_window_save
	.cfi_register 15, 31
.LLBB552:
	.loc 1 236 0
	sethi	%gdop_hix22(atomic_lock), %i4
.LLBE552:
	.loc 1 233 0
	mov	%i0, %i5
	sethi	%hi(_GLOBAL_OFFSET_TABLE_-4), %l7
	call	__sparc_get_pc_thunk.l7
	 add	%l7, %lo(_GLOBAL_OFFSET_TABLE_+4), %l7
.LLBB554:
	.loc 1 236 0
	xor	%i4, %gdop_lox10(atomic_lock), %i4
	ld	[%l7 + %i4], %i4, %gdop(atomic_lock)
	call	pthread_mutex_lock, 0
	 mov	%i4, %o0
	sra	%o0, 31, %g2
.LLVL1018:
	orcc	%g2, %o0, %g0
	bne,pn	%icc, .LL603
	 mov	%o0, %g1
.LLVL1019:
.LLBE554:
	.loc 1 237 0
	ld	[%i5], %i0
.LL605:
.LLBB555:
	.loc 1 238 0
	mov	%i4, %o0
.LLBE555:
	.loc 1 237 0
	add	%i0, %i1, %i0
.LLVL1020:
.LLBB557:
	.loc 1 238 0
	call	pthread_mutex_unlock, 0
	 st	%i0, [%i5]
	sra	%o0, 31, %g2
.LLVL1021:
	orcc	%g2, %o0, %g0
	be,pt	%icc, .LL606
	 mov	%o0, %g1
.LLBB556:
	.loc 1 238 0 is_stmt 0 discriminator 1
	add	%sp, -264, %sp
	stx	%g0, [%fp-8]
	sethi	%gdop_hix22(.LLC2), %g3
	st	%g1, [%sp+96]
	sethi	%gdop_hix22(.LLC0), %o2
	xor	%g3, %gdop_lox10(.LLC2), %g3
	ld	[%fp-8], %g1
	sethi	%gdop_hix22(.LLC5), %o3
	sethi	%gdop_hix22(.LLC3), %o5
	ld	[%l7 + %g3], %g3, %gdop(.LLC2)
	xor	%o2, %gdop_lox10(.LLC0), %o2
	xor	%o3, %gdop_lox10(.LLC5), %o3
	xor	%o5, %gdop_lox10(.LLC3), %o5
	add	%sp, 120, %i5
.LLVL1022:
	ld	[%l7 + %o2], %o2, %gdop(.LLC0)
	st	%g1, [%sp+104]
	mov	256, %o1
	mov	%i5, %o0
.LLVL1023:
	ld	[%fp-4], %g1
	mov	%g3, %o4
	ld	[%l7 + %o3], %o3, %gdop(.LLC5)
	ld	[%l7 + %o5], %o5, %gdop(.LLC3)
	st	%g2, [%sp+92]
	st	%g3, [%sp+100]
	call	snprintf, 0
	 st	%g1, [%sp+108]
.LLVL1024:
	sethi	%gdop_hix22(.LLC4), %o1
	mov	%i5, %o0
	xor	%o1, %gdop_lox10(.LLC4), %o1
	mov	238, %o2
	call	__assert, 0
	 ld	[%l7 + %o1], %o1, %gdop(.LLC4)
.LL606:
.LLBE556:
.LLBE557:
	.loc 1 241 0 is_stmt 1 discriminator 1
	return	%i7+8
	 nop
.LLVL1025:
.LL603:
.LLBB558:
.LLBB553:
	.loc 1 236 0 discriminator 1
	add	%sp, -264, %sp
	stx	%g0, [%fp-8]
	sethi	%gdop_hix22(.LLC2), %g3
	st	%g1, [%sp+96]
	sethi	%gdop_hix22(.LLC0), %o2
	xor	%g3, %gdop_lox10(.LLC2), %g3
	ld	[%fp-8], %g1
.LLVL1026:
	sethi	%gdop_hix22(.LLC1), %o3
	sethi	%gdop_hix22(.LLC3), %o5
	ld	[%l7 + %g3], %g3, %gdop(.LLC2)
	xor	%o2, %gdop_lox10(.LLC0), %o2
	xor	%o3, %gdop_lox10(.LLC1), %o3
	xor	%o5, %gdop_lox10(.LLC3), %o5
	add	%sp, 120, %i0
.LLVL1027:
	ld	[%l7 + %o2], %o2, %gdop(.LLC0)
	st	%g1, [%sp+104]
	mov	256, %o1
	mov	%i0, %o0
.LLVL1028:
	ld	[%fp-4], %g1
	mov	%g3, %o4
	ld	[%l7 + %o3], %o3, %gdop(.LLC1)
	ld	[%l7 + %o5], %o5, %gdop(.LLC3)
	st	%g2, [%sp+92]
	st	%g3, [%sp+100]
	call	snprintf, 0
	 st	%g1, [%sp+108]
.LLVL1029:
	sethi	%gdop_hix22(.LLC4), %o1
	mov	%i0, %o0
	xor	%o1, %gdop_lox10(.LLC4), %o1
	mov	236, %o2
	call	__assert, 0
	 ld	[%l7 + %o1], %o1, %gdop(.LLC4)
	.loc 1 237 0 discriminator 1
	ba,pt	%xcc, .LL605
	 ld	[%i5], %i0
.LLBE553:
.LLBE558:
	.cfi_endproc
.LLFE103:
	.size	atomic_add_ptr_nv, .-atomic_add_ptr_nv
	.align 4
	.align 32
	.global atomic_sub_8_nv
	.type	atomic_sub_8_nv, #function
	.proc	014
atomic_sub_8_nv:
.LLFB104:
	.loc 1 254 0
	.cfi_startproc
.LLVL1030:
	save	%sp, -128, %sp
.LLCFI79:
	.cfi_def_cfa_register 30
	.cfi_window_save
	.cfi_register 15, 31
.LLBB559:
	sethi	%gdop_hix22(atomic_lock), %i5
.LLBE559:
	sethi	%hi(_GLOBAL_OFFSET_TABLE_-4), %l7
	call	__sparc_get_pc_thunk.l7
	 add	%l7, %lo(_GLOBAL_OFFSET_TABLE_+4), %l7
.LLBB561:
	.loc 1 254 0
	xor	%i5, %gdop_lox10(atomic_lock), %i5
	ld	[%l7 + %i5], %i5, %gdop(atomic_lock)
	call	pthread_mutex_lock, 0
	 mov	%i5, %o0
	sra	%o0, 31, %g2
.LLVL1031:
	orcc	%g2, %o0, %g0
	bne,pn	%icc, .LL612
	 mov	%o0, %g1
.LLVL1032:
.LL608:
.LLBE561:
	.loc 1 254 0 is_stmt 0 discriminator 2
	ldub	[%i0], %g1
.LLBB562:
	mov	%i5, %o0
.LLBE562:
	sub	%g1, %i1, %i1
.LLVL1033:
	stb	%i1, [%i0]
.LLBB564:
	call	pthread_mutex_unlock, 0
	 mov	%i1, %i0
	sra	%o0, 31, %g2
.LLVL1034:
	orcc	%g2, %o0, %g0
	be,pt	%icc, .LL610
	 mov	%o0, %g1
.LLBB563:
	.loc 1 254 0 discriminator 3
	add	%sp, -264, %sp
	stx	%g0, [%fp-8]
	sethi	%gdop_hix22(.LLC2), %g3
	st	%g1, [%sp+96]
	sethi	%gdop_hix22(.LLC0), %o2
	xor	%g3, %gdop_lox10(.LLC2), %g3
	ld	[%fp-8], %g1
	sethi	%gdop_hix22(.LLC5), %o3
	sethi	%gdop_hix22(.LLC3), %o5
	ld	[%l7 + %g3], %g3, %gdop(.LLC2)
	xor	%o2, %gdop_lox10(.LLC0), %o2
	xor	%o3, %gdop_lox10(.LLC5), %o3
	xor	%o5, %gdop_lox10(.LLC3), %o5
	add	%sp, 120, %i5
.LLVL1035:
	ld	[%l7 + %o2], %o2, %gdop(.LLC0)
	st	%g1, [%sp+104]
	mov	256, %o1
	mov	%i5, %o0
.LLVL1036:
	ld	[%fp-4], %g1
	mov	%g3, %o4
	ld	[%l7 + %o3], %o3, %gdop(.LLC5)
	ld	[%l7 + %o5], %o5, %gdop(.LLC3)
	st	%g2, [%sp+92]
	st	%g3, [%sp+100]
	call	snprintf, 0
	 st	%g1, [%sp+108]
.LLVL1037:
	sethi	%gdop_hix22(.LLC4), %o1
	mov	%i5, %o0
	xor	%o1, %gdop_lox10(.LLC4), %o1
	mov	254, %o2
	call	__assert, 0
	 ld	[%l7 + %o1], %o1, %gdop(.LLC4)
.LLVL1038:
.LL610:
.LLBE563:
.LLBE564:
	.loc 1 254 0 discriminator 4
	return	%i7+8
	 and	%o0, 0xff, %o0
.LLVL1039:
.LL612:
.LLBB565:
.LLBB560:
	.loc 1 254 0 discriminator 1
	add	%sp, -264, %sp
	stx	%g0, [%fp-8]
	sethi	%gdop_hix22(.LLC2), %g3
	st	%g1, [%sp+96]
	sethi	%gdop_hix22(.LLC0), %o2
	xor	%g3, %gdop_lox10(.LLC2), %g3
	ld	[%fp-8], %g1
.LLVL1040:
	sethi	%gdop_hix22(.LLC1), %o3
	sethi	%gdop_hix22(.LLC3), %o5
	ld	[%l7 + %g3], %g3, %gdop(.LLC2)
	xor	%o2, %gdop_lox10(.LLC0), %o2
	xor	%o3, %gdop_lox10(.LLC1), %o3
	xor	%o5, %gdop_lox10(.LLC3), %o5
	add	%sp, 120, %i4
.LLVL1041:
	ld	[%l7 + %o2], %o2, %gdop(.LLC0)
	st	%g1, [%sp+104]
	mov	256, %o1
	mov	%i4, %o0
.LLVL1042:
	ld	[%fp-4], %g1
	mov	%g3, %o4
	ld	[%l7 + %o3], %o3, %gdop(.LLC1)
	ld	[%l7 + %o5], %o5, %gdop(.LLC3)
	st	%g2, [%sp+92]
	st	%g3, [%sp+100]
	call	snprintf, 0
	 st	%g1, [%sp+108]
.LLVL1043:
	sethi	%gdop_hix22(.LLC4), %o1
	mov	%i4, %o0
	xor	%o1, %gdop_lox10(.LLC4), %o1
	mov	254, %o2
	call	__assert, 0
	 ld	[%l7 + %o1], %o1, %gdop(.LLC4)
	ba,pt	%xcc, .LL608
	 nop
.LLBE560:
.LLBE565:
	.cfi_endproc
.LLFE104:
	.size	atomic_sub_8_nv, .-atomic_sub_8_nv
	.align 4
	.align 32
	.global atomic_sub_char_nv
	.type	atomic_sub_char_nv, #function
	.proc	014
atomic_sub_char_nv:
.LLFB105:
	.loc 1 255 0 is_stmt 1
	.cfi_startproc
.LLVL1044:
	save	%sp, -128, %sp
.LLCFI80:
	.cfi_def_cfa_register 30
	.cfi_window_save
	.cfi_register 15, 31
.LLBB566:
	sethi	%gdop_hix22(atomic_lock), %i5
.LLBE566:
	sethi	%hi(_GLOBAL_OFFSET_TABLE_-4), %l7
	call	__sparc_get_pc_thunk.l7
	 add	%l7, %lo(_GLOBAL_OFFSET_TABLE_+4), %l7
.LLBB568:
	.loc 1 255 0
	xor	%i5, %gdop_lox10(atomic_lock), %i5
	ld	[%l7 + %i5], %i5, %gdop(atomic_lock)
	call	pthread_mutex_lock, 0
	 mov	%i5, %o0
	sra	%o0, 31, %g2
.LLVL1045:
	orcc	%g2, %o0, %g0
	bne,pn	%icc, .LL618
	 mov	%o0, %g1
.LLVL1046:
.LL614:
.LLBE568:
	.loc 1 255 0 is_stmt 0 discriminator 2
	ldub	[%i0], %g1
.LLBB569:
	mov	%i5, %o0
.LLBE569:
	sub	%g1, %i1, %i1
.LLVL1047:
	stb	%i1, [%i0]
.LLBB571:
	call	pthread_mutex_unlock, 0
	 mov	%i1, %i0
	sra	%o0, 31, %g2
.LLVL1048:
	orcc	%g2, %o0, %g0
	be,pt	%icc, .LL616
	 mov	%o0, %g1
.LLBB570:
	.loc 1 255 0 discriminator 3
	add	%sp, -264, %sp
	stx	%g0, [%fp-8]
	sethi	%gdop_hix22(.LLC2), %g3
	st	%g1, [%sp+96]
	sethi	%gdop_hix22(.LLC0), %o2
	xor	%g3, %gdop_lox10(.LLC2), %g3
	ld	[%fp-8], %g1
	sethi	%gdop_hix22(.LLC5), %o3
	sethi	%gdop_hix22(.LLC3), %o5
	ld	[%l7 + %g3], %g3, %gdop(.LLC2)
	xor	%o2, %gdop_lox10(.LLC0), %o2
	xor	%o3, %gdop_lox10(.LLC5), %o3
	xor	%o5, %gdop_lox10(.LLC3), %o5
	add	%sp, 120, %i5
.LLVL1049:
	ld	[%l7 + %o2], %o2, %gdop(.LLC0)
	st	%g1, [%sp+104]
	mov	256, %o1
	mov	%i5, %o0
.LLVL1050:
	ld	[%fp-4], %g1
	mov	%g3, %o4
	ld	[%l7 + %o3], %o3, %gdop(.LLC5)
	ld	[%l7 + %o5], %o5, %gdop(.LLC3)
	st	%g2, [%sp+92]
	st	%g3, [%sp+100]
	call	snprintf, 0
	 st	%g1, [%sp+108]
.LLVL1051:
	sethi	%gdop_hix22(.LLC4), %o1
	mov	%i5, %o0
	xor	%o1, %gdop_lox10(.LLC4), %o1
	mov	255, %o2
	call	__assert, 0
	 ld	[%l7 + %o1], %o1, %gdop(.LLC4)
.LLVL1052:
.LL616:
.LLBE570:
.LLBE571:
	.loc 1 255 0 discriminator 4
	return	%i7+8
	 and	%o0, 0xff, %o0
.LLVL1053:
.LL618:
.LLBB572:
.LLBB567:
	.loc 1 255 0 discriminator 1
	add	%sp, -264, %sp
	stx	%g0, [%fp-8]
	sethi	%gdop_hix22(.LLC2), %g3
	st	%g1, [%sp+96]
	sethi	%gdop_hix22(.LLC0), %o2
	xor	%g3, %gdop_lox10(.LLC2), %g3
	ld	[%fp-8], %g1
.LLVL1054:
	sethi	%gdop_hix22(.LLC1), %o3
	sethi	%gdop_hix22(.LLC3), %o5
	ld	[%l7 + %g3], %g3, %gdop(.LLC2)
	xor	%o2, %gdop_lox10(.LLC0), %o2
	xor	%o3, %gdop_lox10(.LLC1), %o3
	xor	%o5, %gdop_lox10(.LLC3), %o5
	add	%sp, 120, %i4
.LLVL1055:
	ld	[%l7 + %o2], %o2, %gdop(.LLC0)
	st	%g1, [%sp+104]
	mov	256, %o1
	mov	%i4, %o0
.LLVL1056:
	ld	[%fp-4], %g1
	mov	%g3, %o4
	ld	[%l7 + %o3], %o3, %gdop(.LLC1)
	ld	[%l7 + %o5], %o5, %gdop(.LLC3)
	st	%g2, [%sp+92]
	st	%g3, [%sp+100]
	call	snprintf, 0
	 st	%g1, [%sp+108]
.LLVL1057:
	sethi	%gdop_hix22(.LLC4), %o1
	mov	%i4, %o0
	xor	%o1, %gdop_lox10(.LLC4), %o1
	mov	255, %o2
	call	__assert, 0
	 ld	[%l7 + %o1], %o1, %gdop(.LLC4)
	ba,pt	%xcc, .LL614
	 nop
.LLBE567:
.LLBE572:
	.cfi_endproc
.LLFE105:
	.size	atomic_sub_char_nv, .-atomic_sub_char_nv
	.align 4
	.align 32
	.global atomic_sub_16_nv
	.type	atomic_sub_16_nv, #function
	.proc	015
atomic_sub_16_nv:
.LLFB106:
	.loc 1 256 0 is_stmt 1
	.cfi_startproc
.LLVL1058:
	save	%sp, -128, %sp
.LLCFI81:
	.cfi_def_cfa_register 30
	.cfi_window_save
	.cfi_register 15, 31
.LLBB573:
	sethi	%gdop_hix22(atomic_lock), %i5
.LLBE573:
	sethi	%hi(_GLOBAL_OFFSET_TABLE_-4), %l7
	call	__sparc_get_pc_thunk.l7
	 add	%l7, %lo(_GLOBAL_OFFSET_TABLE_+4), %l7
.LLBB575:
	.loc 1 256 0
	xor	%i5, %gdop_lox10(atomic_lock), %i5
	ld	[%l7 + %i5], %i5, %gdop(atomic_lock)
	call	pthread_mutex_lock, 0
	 mov	%i5, %o0
	sra	%o0, 31, %g2
.LLVL1059:
	orcc	%g2, %o0, %g0
	bne,pn	%icc, .LL624
	 mov	%o0, %g1
.LLVL1060:
.LL620:
.LLBE575:
	.loc 1 256 0 is_stmt 0 discriminator 2
	lduh	[%i0], %g1
.LLBB576:
	mov	%i5, %o0
.LLBE576:
	sub	%g1, %i1, %i1
.LLVL1061:
	sth	%i1, [%i0]
.LLBB578:
	call	pthread_mutex_unlock, 0
	 nop
	sra	%o0, 31, %g2
.LLVL1062:
	orcc	%g2, %o0, %g0
	be,pt	%icc, .LL622
	 mov	%o0, %g1
.LLBB577:
	.loc 1 256 0 discriminator 3
	add	%sp, -264, %sp
	stx	%g0, [%fp-8]
	sethi	%gdop_hix22(.LLC2), %g3
	st	%g1, [%sp+96]
	sethi	%gdop_hix22(.LLC0), %o2
	xor	%g3, %gdop_lox10(.LLC2), %g3
	ld	[%fp-8], %g1
	sethi	%gdop_hix22(.LLC5), %o3
	sethi	%gdop_hix22(.LLC3), %o5
	ld	[%l7 + %g3], %g3, %gdop(.LLC2)
	xor	%o2, %gdop_lox10(.LLC0), %o2
	xor	%o3, %gdop_lox10(.LLC5), %o3
	xor	%o5, %gdop_lox10(.LLC3), %o5
	add	%sp, 120, %i5
.LLVL1063:
	ld	[%l7 + %o2], %o2, %gdop(.LLC0)
	st	%g1, [%sp+104]
	mov	256, %o1
	mov	%i5, %o0
.LLVL1064:
	ld	[%fp-4], %g1
	mov	%g3, %o4
	ld	[%l7 + %o3], %o3, %gdop(.LLC5)
	ld	[%l7 + %o5], %o5, %gdop(.LLC3)
	st	%g2, [%sp+92]
	st	%g3, [%sp+100]
	call	snprintf, 0
	 st	%g1, [%sp+108]
.LLVL1065:
	sethi	%gdop_hix22(.LLC4), %o1
	mov	%i5, %o0
	xor	%o1, %gdop_lox10(.LLC4), %o1
	mov	256, %o2
	call	__assert, 0
	 ld	[%l7 + %o1], %o1, %gdop(.LLC4)
.LLVL1066:
.LL622:
.LLBE577:
.LLBE578:
	.loc 1 256 0 discriminator 4
	sll	%i1, 16, %i1
.LLVL1067:
	return	%i7+8
	 srl	%o1, 16, %o0
.LLVL1068:
.LL624:
.LLBB579:
.LLBB574:
	.loc 1 256 0 discriminator 1
	add	%sp, -264, %sp
	stx	%g0, [%fp-8]
	sethi	%gdop_hix22(.LLC2), %g3
	st	%g1, [%sp+96]
	sethi	%gdop_hix22(.LLC0), %o2
	xor	%g3, %gdop_lox10(.LLC2), %g3
	ld	[%fp-8], %g1
.LLVL1069:
	sethi	%gdop_hix22(.LLC1), %o3
	sethi	%gdop_hix22(.LLC3), %o5
	ld	[%l7 + %g3], %g3, %gdop(.LLC2)
	xor	%o2, %gdop_lox10(.LLC0), %o2
	xor	%o3, %gdop_lox10(.LLC1), %o3
	xor	%o5, %gdop_lox10(.LLC3), %o5
	add	%sp, 120, %i4
.LLVL1070:
	ld	[%l7 + %o2], %o2, %gdop(.LLC0)
	st	%g1, [%sp+104]
	mov	256, %o1
	mov	%i4, %o0
.LLVL1071:
	ld	[%fp-4], %g1
	mov	%g3, %o4
	ld	[%l7 + %o3], %o3, %gdop(.LLC1)
	ld	[%l7 + %o5], %o5, %gdop(.LLC3)
	st	%g2, [%sp+92]
	st	%g3, [%sp+100]
	call	snprintf, 0
	 st	%g1, [%sp+108]
.LLVL1072:
	sethi	%gdop_hix22(.LLC4), %o1
	mov	%i4, %o0
	xor	%o1, %gdop_lox10(.LLC4), %o1
	mov	256, %o2
	call	__assert, 0
	 ld	[%l7 + %o1], %o1, %gdop(.LLC4)
	ba,pt	%xcc, .LL620
	 nop
.LLBE574:
.LLBE579:
	.cfi_endproc
.LLFE106:
	.size	atomic_sub_16_nv, .-atomic_sub_16_nv
	.align 4
	.align 32
	.global atomic_sub_short_nv
	.type	atomic_sub_short_nv, #function
	.proc	015
atomic_sub_short_nv:
.LLFB107:
	.loc 1 257 0 is_stmt 1
	.cfi_startproc
.LLVL1073:
	save	%sp, -128, %sp
.LLCFI82:
	.cfi_def_cfa_register 30
	.cfi_window_save
	.cfi_register 15, 31
.LLBB580:
	sethi	%gdop_hix22(atomic_lock), %i5
.LLBE580:
	sethi	%hi(_GLOBAL_OFFSET_TABLE_-4), %l7
	call	__sparc_get_pc_thunk.l7
	 add	%l7, %lo(_GLOBAL_OFFSET_TABLE_+4), %l7
.LLBB582:
	.loc 1 257 0
	xor	%i5, %gdop_lox10(atomic_lock), %i5
	ld	[%l7 + %i5], %i5, %gdop(atomic_lock)
	call	pthread_mutex_lock, 0
	 mov	%i5, %o0
	sra	%o0, 31, %g2
.LLVL1074:
	orcc	%g2, %o0, %g0
	bne,pn	%icc, .LL630
	 mov	%o0, %g1
.LLVL1075:
.LL626:
.LLBE582:
	.loc 1 257 0 is_stmt 0 discriminator 2
	lduh	[%i0], %g1
.LLBB583:
	mov	%i5, %o0
.LLBE583:
	sub	%g1, %i1, %i1
.LLVL1076:
	sth	%i1, [%i0]
.LLBB585:
	call	pthread_mutex_unlock, 0
	 nop
	sra	%o0, 31, %g2
.LLVL1077:
	orcc	%g2, %o0, %g0
	be,pt	%icc, .LL628
	 mov	%o0, %g1
.LLBB584:
	.loc 1 257 0 discriminator 3
	add	%sp, -264, %sp
	stx	%g0, [%fp-8]
	sethi	%gdop_hix22(.LLC2), %g3
	st	%g1, [%sp+96]
	sethi	%gdop_hix22(.LLC0), %o2
	xor	%g3, %gdop_lox10(.LLC2), %g3
	ld	[%fp-8], %g1
	sethi	%gdop_hix22(.LLC5), %o3
	sethi	%gdop_hix22(.LLC3), %o5
	ld	[%l7 + %g3], %g3, %gdop(.LLC2)
	xor	%o2, %gdop_lox10(.LLC0), %o2
	xor	%o3, %gdop_lox10(.LLC5), %o3
	xor	%o5, %gdop_lox10(.LLC3), %o5
	add	%sp, 120, %i5
.LLVL1078:
	ld	[%l7 + %o2], %o2, %gdop(.LLC0)
	st	%g1, [%sp+104]
	mov	256, %o1
	mov	%i5, %o0
.LLVL1079:
	ld	[%fp-4], %g1
	mov	%g3, %o4
	ld	[%l7 + %o3], %o3, %gdop(.LLC5)
	ld	[%l7 + %o5], %o5, %gdop(.LLC3)
	st	%g2, [%sp+92]
	st	%g3, [%sp+100]
	call	snprintf, 0
	 st	%g1, [%sp+108]
.LLVL1080:
	sethi	%gdop_hix22(.LLC4), %o1
	mov	%i5, %o0
	xor	%o1, %gdop_lox10(.LLC4), %o1
	mov	257, %o2
	call	__assert, 0
	 ld	[%l7 + %o1], %o1, %gdop(.LLC4)
.LLVL1081:
.LL628:
.LLBE584:
.LLBE585:
	.loc 1 257 0 discriminator 4
	sll	%i1, 16, %i1
.LLVL1082:
	return	%i7+8
	 srl	%o1, 16, %o0
.LLVL1083:
.LL630:
.LLBB586:
.LLBB581:
	.loc 1 257 0 discriminator 1
	add	%sp, -264, %sp
	stx	%g0, [%fp-8]
	sethi	%gdop_hix22(.LLC2), %g3
	st	%g1, [%sp+96]
	sethi	%gdop_hix22(.LLC0), %o2
	xor	%g3, %gdop_lox10(.LLC2), %g3
	ld	[%fp-8], %g1
.LLVL1084:
	sethi	%gdop_hix22(.LLC1), %o3
	sethi	%gdop_hix22(.LLC3), %o5
	ld	[%l7 + %g3], %g3, %gdop(.LLC2)
	xor	%o2, %gdop_lox10(.LLC0), %o2
	xor	%o3, %gdop_lox10(.LLC1), %o3
	xor	%o5, %gdop_lox10(.LLC3), %o5
	add	%sp, 120, %i4
.LLVL1085:
	ld	[%l7 + %o2], %o2, %gdop(.LLC0)
	st	%g1, [%sp+104]
	mov	256, %o1
	mov	%i4, %o0
.LLVL1086:
	ld	[%fp-4], %g1
	mov	%g3, %o4
	ld	[%l7 + %o3], %o3, %gdop(.LLC1)
	ld	[%l7 + %o5], %o5, %gdop(.LLC3)
	st	%g2, [%sp+92]
	st	%g3, [%sp+100]
	call	snprintf, 0
	 st	%g1, [%sp+108]
.LLVL1087:
	sethi	%gdop_hix22(.LLC4), %o1
	mov	%i4, %o0
	xor	%o1, %gdop_lox10(.LLC4), %o1
	mov	257, %o2
	call	__assert, 0
	 ld	[%l7 + %o1], %o1, %gdop(.LLC4)
	ba,pt	%xcc, .LL626
	 nop
.LLBE581:
.LLBE586:
	.cfi_endproc
.LLFE107:
	.size	atomic_sub_short_nv, .-atomic_sub_short_nv
	.align 4
	.align 32
	.global atomic_sub_32_nv
	.type	atomic_sub_32_nv, #function
	.proc	016
atomic_sub_32_nv:
.LLFB108:
	.loc 1 258 0 is_stmt 1
	.cfi_startproc
.LLVL1088:
	save	%sp, -128, %sp
.LLCFI83:
	.cfi_def_cfa_register 30
	.cfi_window_save
	.cfi_register 15, 31
.LLBB587:
	sethi	%gdop_hix22(atomic_lock), %i4
.LLBE587:
	mov	%i0, %i5
	sethi	%hi(_GLOBAL_OFFSET_TABLE_-4), %l7
	call	__sparc_get_pc_thunk.l7
	 add	%l7, %lo(_GLOBAL_OFFSET_TABLE_+4), %l7
.LLBB589:
	.loc 1 258 0
	xor	%i4, %gdop_lox10(atomic_lock), %i4
	ld	[%l7 + %i4], %i4, %gdop(atomic_lock)
	call	pthread_mutex_lock, 0
	 mov	%i4, %o0
	sra	%o0, 31, %g2
.LLVL1089:
	orcc	%g2, %o0, %g0
	bne,pn	%icc, .LL636
	 mov	%o0, %g1
.LLVL1090:
.LL632:
.LLBE589:
	.loc 1 258 0 is_stmt 0 discriminator 2
	ld	[%i5], %i0
.LLBB590:
	mov	%i4, %o0
.LLBE590:
	sub	%i0, %i1, %i0
	st	%i0, [%i5]
.LLVL1091:
.LLBB592:
	call	pthread_mutex_unlock, 0
	 nop
	sra	%o0, 31, %g2
.LLVL1092:
	orcc	%g2, %o0, %g0
	be,pt	%icc, .LL638
	 mov	%o0, %g1
.LLBB591:
	.loc 1 258 0 discriminator 3
	add	%sp, -264, %sp
	stx	%g0, [%fp-8]
	sethi	%gdop_hix22(.LLC2), %g3
	st	%g1, [%sp+96]
	sethi	%gdop_hix22(.LLC0), %o2
	xor	%g3, %gdop_lox10(.LLC2), %g3
	ld	[%fp-8], %g1
	sethi	%gdop_hix22(.LLC5), %o3
	sethi	%gdop_hix22(.LLC3), %o5
	ld	[%l7 + %g3], %g3, %gdop(.LLC2)
	xor	%o2, %gdop_lox10(.LLC0), %o2
	xor	%o3, %gdop_lox10(.LLC5), %o3
	xor	%o5, %gdop_lox10(.LLC3), %o5
	add	%sp, 120, %i5
.LLVL1093:
	ld	[%l7 + %o2], %o2, %gdop(.LLC0)
	st	%g1, [%sp+104]
	mov	256, %o1
	mov	%i5, %o0
.LLVL1094:
	ld	[%fp-4], %g1
	mov	%g3, %o4
	ld	[%l7 + %o3], %o3, %gdop(.LLC5)
	ld	[%l7 + %o5], %o5, %gdop(.LLC3)
	st	%g2, [%sp+92]
	st	%g3, [%sp+100]
	call	snprintf, 0
	 st	%g1, [%sp+108]
.LLVL1095:
	sethi	%gdop_hix22(.LLC4), %o1
	mov	%i5, %o0
	xor	%o1, %gdop_lox10(.LLC4), %o1
	mov	258, %o2
	call	__assert, 0
	 ld	[%l7 + %o1], %o1, %gdop(.LLC4)
.LL638:
.LLBE591:
.LLBE592:
	return	%i7+8
	 nop
.LLVL1096:
.LL636:
.LLBB593:
.LLBB588:
	.loc 1 258 0 discriminator 1
	add	%sp, -264, %sp
	stx	%g0, [%fp-8]
	sethi	%gdop_hix22(.LLC2), %g3
	st	%g1, [%sp+96]
	sethi	%gdop_hix22(.LLC0), %o2
	xor	%g3, %gdop_lox10(.LLC2), %g3
	ld	[%fp-8], %g1
.LLVL1097:
	sethi	%gdop_hix22(.LLC1), %o3
	sethi	%gdop_hix22(.LLC3), %o5
	ld	[%l7 + %g3], %g3, %gdop(.LLC2)
	xor	%o2, %gdop_lox10(.LLC0), %o2
	xor	%o3, %gdop_lox10(.LLC1), %o3
	xor	%o5, %gdop_lox10(.LLC3), %o5
	add	%sp, 120, %i0
.LLVL1098:
	ld	[%l7 + %o2], %o2, %gdop(.LLC0)
	st	%g1, [%sp+104]
	mov	256, %o1
	mov	%i0, %o0
.LLVL1099:
	ld	[%fp-4], %g1
	mov	%g3, %o4
	ld	[%l7 + %o3], %o3, %gdop(.LLC1)
	ld	[%l7 + %o5], %o5, %gdop(.LLC3)
	st	%g2, [%sp+92]
	st	%g3, [%sp+100]
	call	snprintf, 0
	 st	%g1, [%sp+108]
.LLVL1100:
	sethi	%gdop_hix22(.LLC4), %o1
	mov	%i0, %o0
	xor	%o1, %gdop_lox10(.LLC4), %o1
	mov	258, %o2
	call	__assert, 0
	 ld	[%l7 + %o1], %o1, %gdop(.LLC4)
	ba,pt	%xcc, .LL632
	 nop
.LLBE588:
.LLBE593:
	.cfi_endproc
.LLFE108:
	.size	atomic_sub_32_nv, .-atomic_sub_32_nv
	.align 4
	.align 32
	.global atomic_sub_int_nv
	.type	atomic_sub_int_nv, #function
	.proc	016
atomic_sub_int_nv:
.LLFB109:
	.loc 1 259 0 is_stmt 1
	.cfi_startproc
.LLVL1101:
	save	%sp, -128, %sp
.LLCFI84:
	.cfi_def_cfa_register 30
	.cfi_window_save
	.cfi_register 15, 31
.LLBB594:
	sethi	%gdop_hix22(atomic_lock), %i4
.LLBE594:
	mov	%i0, %i5
	sethi	%hi(_GLOBAL_OFFSET_TABLE_-4), %l7
	call	__sparc_get_pc_thunk.l7
	 add	%l7, %lo(_GLOBAL_OFFSET_TABLE_+4), %l7
.LLBB596:
	.loc 1 259 0
	xor	%i4, %gdop_lox10(atomic_lock), %i4
	ld	[%l7 + %i4], %i4, %gdop(atomic_lock)
	call	pthread_mutex_lock, 0
	 mov	%i4, %o0
	sra	%o0, 31, %g2
.LLVL1102:
	orcc	%g2, %o0, %g0
	bne,pn	%icc, .LL644
	 mov	%o0, %g1
.LLVL1103:
.LL640:
.LLBE596:
	.loc 1 259 0 is_stmt 0 discriminator 2
	ld	[%i5], %i0
.LLBB597:
	mov	%i4, %o0
.LLBE597:
	sub	%i0, %i1, %i0
	st	%i0, [%i5]
.LLVL1104:
.LLBB599:
	call	pthread_mutex_unlock, 0
	 nop
	sra	%o0, 31, %g2
.LLVL1105:
	orcc	%g2, %o0, %g0
	be,pt	%icc, .LL646
	 mov	%o0, %g1
.LLBB598:
	.loc 1 259 0 discriminator 3
	add	%sp, -264, %sp
	stx	%g0, [%fp-8]
	sethi	%gdop_hix22(.LLC2), %g3
	st	%g1, [%sp+96]
	sethi	%gdop_hix22(.LLC0), %o2
	xor	%g3, %gdop_lox10(.LLC2), %g3
	ld	[%fp-8], %g1
	sethi	%gdop_hix22(.LLC5), %o3
	sethi	%gdop_hix22(.LLC3), %o5
	ld	[%l7 + %g3], %g3, %gdop(.LLC2)
	xor	%o2, %gdop_lox10(.LLC0), %o2
	xor	%o3, %gdop_lox10(.LLC5), %o3
	xor	%o5, %gdop_lox10(.LLC3), %o5
	add	%sp, 120, %i5
.LLVL1106:
	ld	[%l7 + %o2], %o2, %gdop(.LLC0)
	st	%g1, [%sp+104]
	mov	256, %o1
	mov	%i5, %o0
.LLVL1107:
	ld	[%fp-4], %g1
	mov	%g3, %o4
	ld	[%l7 + %o3], %o3, %gdop(.LLC5)
	ld	[%l7 + %o5], %o5, %gdop(.LLC3)
	st	%g2, [%sp+92]
	st	%g3, [%sp+100]
	call	snprintf, 0
	 st	%g1, [%sp+108]
.LLVL1108:
	sethi	%gdop_hix22(.LLC4), %o1
	mov	%i5, %o0
	xor	%o1, %gdop_lox10(.LLC4), %o1
	mov	259, %o2
	call	__assert, 0
	 ld	[%l7 + %o1], %o1, %gdop(.LLC4)
.LL646:
.LLBE598:
.LLBE599:
	return	%i7+8
	 nop
.LLVL1109:
.LL644:
.LLBB600:
.LLBB595:
	.loc 1 259 0 discriminator 1
	add	%sp, -264, %sp
	stx	%g0, [%fp-8]
	sethi	%gdop_hix22(.LLC2), %g3
	st	%g1, [%sp+96]
	sethi	%gdop_hix22(.LLC0), %o2
	xor	%g3, %gdop_lox10(.LLC2), %g3
	ld	[%fp-8], %g1
.LLVL1110:
	sethi	%gdop_hix22(.LLC1), %o3
	sethi	%gdop_hix22(.LLC3), %o5
	ld	[%l7 + %g3], %g3, %gdop(.LLC2)
	xor	%o2, %gdop_lox10(.LLC0), %o2
	xor	%o3, %gdop_lox10(.LLC1), %o3
	xor	%o5, %gdop_lox10(.LLC3), %o5
	add	%sp, 120, %i0
.LLVL1111:
	ld	[%l7 + %o2], %o2, %gdop(.LLC0)
	st	%g1, [%sp+104]
	mov	256, %o1
	mov	%i0, %o0
.LLVL1112:
	ld	[%fp-4], %g1
	mov	%g3, %o4
	ld	[%l7 + %o3], %o3, %gdop(.LLC1)
	ld	[%l7 + %o5], %o5, %gdop(.LLC3)
	st	%g2, [%sp+92]
	st	%g3, [%sp+100]
	call	snprintf, 0
	 st	%g1, [%sp+108]
.LLVL1113:
	sethi	%gdop_hix22(.LLC4), %o1
	mov	%i0, %o0
	xor	%o1, %gdop_lox10(.LLC4), %o1
	mov	259, %o2
	call	__assert, 0
	 ld	[%l7 + %o1], %o1, %gdop(.LLC4)
	ba,pt	%xcc, .LL640
	 nop
.LLBE595:
.LLBE600:
	.cfi_endproc
.LLFE109:
	.size	atomic_sub_int_nv, .-atomic_sub_int_nv
	.align 4
	.align 32
	.global atomic_sub_long_nv
	.type	atomic_sub_long_nv, #function
	.proc	016
atomic_sub_long_nv:
.LLFB110:
	.loc 1 260 0 is_stmt 1
	.cfi_startproc
.LLVL1114:
	save	%sp, -128, %sp
.LLCFI85:
	.cfi_def_cfa_register 30
	.cfi_window_save
	.cfi_register 15, 31
.LLBB601:
	sethi	%gdop_hix22(atomic_lock), %i4
.LLBE601:
	mov	%i0, %i5
	sethi	%hi(_GLOBAL_OFFSET_TABLE_-4), %l7
	call	__sparc_get_pc_thunk.l7
	 add	%l7, %lo(_GLOBAL_OFFSET_TABLE_+4), %l7
.LLBB603:
	.loc 1 260 0
	xor	%i4, %gdop_lox10(atomic_lock), %i4
	ld	[%l7 + %i4], %i4, %gdop(atomic_lock)
	call	pthread_mutex_lock, 0
	 mov	%i4, %o0
	sra	%o0, 31, %g2
.LLVL1115:
	orcc	%g2, %o0, %g0
	bne,pn	%icc, .LL652
	 mov	%o0, %g1
.LLVL1116:
.LL648:
.LLBE603:
	.loc 1 260 0 is_stmt 0 discriminator 2
	ld	[%i5], %i0
.LLBB604:
	mov	%i4, %o0
.LLBE604:
	sub	%i0, %i1, %i0
	st	%i0, [%i5]
.LLVL1117:
.LLBB606:
	call	pthread_mutex_unlock, 0
	 nop
	sra	%o0, 31, %g2
.LLVL1118:
	orcc	%g2, %o0, %g0
	be,pt	%icc, .LL654
	 mov	%o0, %g1
.LLBB605:
	.loc 1 260 0 discriminator 3
	add	%sp, -264, %sp
	stx	%g0, [%fp-8]
	sethi	%gdop_hix22(.LLC2), %g3
	st	%g1, [%sp+96]
	sethi	%gdop_hix22(.LLC0), %o2
	xor	%g3, %gdop_lox10(.LLC2), %g3
	ld	[%fp-8], %g1
	sethi	%gdop_hix22(.LLC5), %o3
	sethi	%gdop_hix22(.LLC3), %o5
	ld	[%l7 + %g3], %g3, %gdop(.LLC2)
	xor	%o2, %gdop_lox10(.LLC0), %o2
	xor	%o3, %gdop_lox10(.LLC5), %o3
	xor	%o5, %gdop_lox10(.LLC3), %o5
	add	%sp, 120, %i5
.LLVL1119:
	ld	[%l7 + %o2], %o2, %gdop(.LLC0)
	st	%g1, [%sp+104]
	mov	256, %o1
	mov	%i5, %o0
.LLVL1120:
	ld	[%fp-4], %g1
	mov	%g3, %o4
	ld	[%l7 + %o3], %o3, %gdop(.LLC5)
	ld	[%l7 + %o5], %o5, %gdop(.LLC3)
	st	%g2, [%sp+92]
	st	%g3, [%sp+100]
	call	snprintf, 0
	 st	%g1, [%sp+108]
.LLVL1121:
	sethi	%gdop_hix22(.LLC4), %o1
	mov	%i5, %o0
	xor	%o1, %gdop_lox10(.LLC4), %o1
	mov	260, %o2
	call	__assert, 0
	 ld	[%l7 + %o1], %o1, %gdop(.LLC4)
.LL654:
.LLBE605:
.LLBE606:
	return	%i7+8
	 nop
.LLVL1122:
.LL652:
.LLBB607:
.LLBB602:
	.loc 1 260 0 discriminator 1
	add	%sp, -264, %sp
	stx	%g0, [%fp-8]
	sethi	%gdop_hix22(.LLC2), %g3
	st	%g1, [%sp+96]
	sethi	%gdop_hix22(.LLC0), %o2
	xor	%g3, %gdop_lox10(.LLC2), %g3
	ld	[%fp-8], %g1
.LLVL1123:
	sethi	%gdop_hix22(.LLC1), %o3
	sethi	%gdop_hix22(.LLC3), %o5
	ld	[%l7 + %g3], %g3, %gdop(.LLC2)
	xor	%o2, %gdop_lox10(.LLC0), %o2
	xor	%o3, %gdop_lox10(.LLC1), %o3
	xor	%o5, %gdop_lox10(.LLC3), %o5
	add	%sp, 120, %i0
.LLVL1124:
	ld	[%l7 + %o2], %o2, %gdop(.LLC0)
	st	%g1, [%sp+104]
	mov	256, %o1
	mov	%i0, %o0
.LLVL1125:
	ld	[%fp-4], %g1
	mov	%g3, %o4
	ld	[%l7 + %o3], %o3, %gdop(.LLC1)
	ld	[%l7 + %o5], %o5, %gdop(.LLC3)
	st	%g2, [%sp+92]
	st	%g3, [%sp+100]
	call	snprintf, 0
	 st	%g1, [%sp+108]
.LLVL1126:
	sethi	%gdop_hix22(.LLC4), %o1
	mov	%i0, %o0
	xor	%o1, %gdop_lox10(.LLC4), %o1
	mov	260, %o2
	call	__assert, 0
	 ld	[%l7 + %o1], %o1, %gdop(.LLC4)
	ba,pt	%xcc, .LL648
	 nop
.LLBE602:
.LLBE607:
	.cfi_endproc
.LLFE110:
	.size	atomic_sub_long_nv, .-atomic_sub_long_nv
	.align 4
	.align 32
	.global atomic_sub_64_nv
